   1              	 .syntax unified
   2              	 .cpu cortex-m4
   3              	 .eabi_attribute 27,3
   4              	 .fpu fpv4-sp-d16
   5              	 .eabi_attribute 20,1
   6              	 .eabi_attribute 21,1
   7              	 .eabi_attribute 23,3
   8              	 .eabi_attribute 24,1
   9              	 .eabi_attribute 25,1
  10              	 .eabi_attribute 26,1
  11              	 .eabi_attribute 30,6
  12              	 .eabi_attribute 34,1
  13              	 .eabi_attribute 18,4
  14              	 .thumb
  15              	 .file "main.c"
  16              	 .text
  17              	.Ltext0:
  18              	 .cfi_sections .debug_frame
  19              	 .section .text.XMC_GPIO_SetOutputHigh,"ax",%progbits
  20              	 .align 2
  21              	 .thumb
  22              	 .thumb_func
  24              	XMC_GPIO_SetOutputHigh:
  25              	.LFB164:
  26              	 .file 1 "C:/Users/Mafish/Documents/GitHub/MAB_Controller/Libraries/XMCLib/inc/xmc_gpio.h"
   1:C:/Users/Mafish/Documents/GitHub/MAB_Controller/Libraries/XMCLib/inc\xmc_gpio.h **** /**
   2:C:/Users/Mafish/Documents/GitHub/MAB_Controller/Libraries/XMCLib/inc\xmc_gpio.h ****  * @file xmc_gpio.h
   3:C:/Users/Mafish/Documents/GitHub/MAB_Controller/Libraries/XMCLib/inc\xmc_gpio.h ****  * @date 2015-06-20
   4:C:/Users/Mafish/Documents/GitHub/MAB_Controller/Libraries/XMCLib/inc\xmc_gpio.h ****  *
   5:C:/Users/Mafish/Documents/GitHub/MAB_Controller/Libraries/XMCLib/inc\xmc_gpio.h ****  * @cond
   6:C:/Users/Mafish/Documents/GitHub/MAB_Controller/Libraries/XMCLib/inc\xmc_gpio.h ****  **************************************************************************************************
   7:C:/Users/Mafish/Documents/GitHub/MAB_Controller/Libraries/XMCLib/inc\xmc_gpio.h ****  * XMClib v2.1.16 - XMC Peripheral Driver Library 
   8:C:/Users/Mafish/Documents/GitHub/MAB_Controller/Libraries/XMCLib/inc\xmc_gpio.h ****  *
   9:C:/Users/Mafish/Documents/GitHub/MAB_Controller/Libraries/XMCLib/inc\xmc_gpio.h ****  * Copyright (c) 2015-2017, Infineon Technologies AG
  10:C:/Users/Mafish/Documents/GitHub/MAB_Controller/Libraries/XMCLib/inc\xmc_gpio.h ****  * All rights reserved.                        
  11:C:/Users/Mafish/Documents/GitHub/MAB_Controller/Libraries/XMCLib/inc\xmc_gpio.h ****  *                                             
  12:C:/Users/Mafish/Documents/GitHub/MAB_Controller/Libraries/XMCLib/inc\xmc_gpio.h ****  * Redistribution and use in source and binary forms, with or without modification,are permitted pr
  13:C:/Users/Mafish/Documents/GitHub/MAB_Controller/Libraries/XMCLib/inc\xmc_gpio.h ****  * following conditions are met:   
  14:C:/Users/Mafish/Documents/GitHub/MAB_Controller/Libraries/XMCLib/inc\xmc_gpio.h ****  *                                                                              
  15:C:/Users/Mafish/Documents/GitHub/MAB_Controller/Libraries/XMCLib/inc\xmc_gpio.h ****  * Redistributions of source code must retain the above copyright notice, this list of conditions a
  16:C:/Users/Mafish/Documents/GitHub/MAB_Controller/Libraries/XMCLib/inc\xmc_gpio.h ****  * disclaimer.                        
  17:C:/Users/Mafish/Documents/GitHub/MAB_Controller/Libraries/XMCLib/inc\xmc_gpio.h ****  * 
  18:C:/Users/Mafish/Documents/GitHub/MAB_Controller/Libraries/XMCLib/inc\xmc_gpio.h ****  * Redistributions in binary form must reproduce the above copyright notice, this list of condition
  19:C:/Users/Mafish/Documents/GitHub/MAB_Controller/Libraries/XMCLib/inc\xmc_gpio.h ****  * disclaimer in the documentation and/or other materials provided with the distribution.          
  20:C:/Users/Mafish/Documents/GitHub/MAB_Controller/Libraries/XMCLib/inc\xmc_gpio.h ****  * 
  21:C:/Users/Mafish/Documents/GitHub/MAB_Controller/Libraries/XMCLib/inc\xmc_gpio.h ****  * Neither the name of the copyright holders nor the names of its contributors may be used to endor
  22:C:/Users/Mafish/Documents/GitHub/MAB_Controller/Libraries/XMCLib/inc\xmc_gpio.h ****  * products derived from this software without specific prior written permission.                  
  23:C:/Users/Mafish/Documents/GitHub/MAB_Controller/Libraries/XMCLib/inc\xmc_gpio.h ****  *                                                                              
  24:C:/Users/Mafish/Documents/GitHub/MAB_Controller/Libraries/XMCLib/inc\xmc_gpio.h ****  * THIS SOFTWARE IS PROVIDED BY THE COPYRIGHT HOLDERS AND CONTRIBUTORS "AS IS" AND ANY EXPRESS OR I
  25:C:/Users/Mafish/Documents/GitHub/MAB_Controller/Libraries/XMCLib/inc\xmc_gpio.h ****  * INCLUDING, BUT NOT LIMITED TO, THE IMPLIED WARRANTIES OF MERCHANTABILITY AND FITNESS FOR A PARTI
  26:C:/Users/Mafish/Documents/GitHub/MAB_Controller/Libraries/XMCLib/inc\xmc_gpio.h ****  * DISCLAIMED. IN NO EVENT SHALL THE COPYRIGHT HOLDER OR CONTRIBUTORS BE LIABLE  FOR ANY DIRECT, IN
  27:C:/Users/Mafish/Documents/GitHub/MAB_Controller/Libraries/XMCLib/inc\xmc_gpio.h ****  * SPECIAL, EXEMPLARY, OR CONSEQUENTIAL DAMAGES (INCLUDING, BUT NOT LIMITED TO, PROCUREMENT OF SUBS
  28:C:/Users/Mafish/Documents/GitHub/MAB_Controller/Libraries/XMCLib/inc\xmc_gpio.h ****  * SERVICES; LOSS OF USE, DATA, OR PROFITS; OR BUSINESS INTERRUPTION) HOWEVER CAUSED AND ON ANY THE
  29:C:/Users/Mafish/Documents/GitHub/MAB_Controller/Libraries/XMCLib/inc\xmc_gpio.h ****  * WHETHER IN CONTRACT, STRICT LIABILITY,OR TORT (INCLUDING NEGLIGENCE OR OTHERWISE) ARISING IN ANY
  30:C:/Users/Mafish/Documents/GitHub/MAB_Controller/Libraries/XMCLib/inc\xmc_gpio.h ****  * OF THIS SOFTWARE, EVEN IF ADVISED OF THE POSSIBILITY OF SUCH DAMAGE.                            
  31:C:/Users/Mafish/Documents/GitHub/MAB_Controller/Libraries/XMCLib/inc\xmc_gpio.h ****  *                                                                              
  32:C:/Users/Mafish/Documents/GitHub/MAB_Controller/Libraries/XMCLib/inc\xmc_gpio.h ****  * To improve the quality of the software, users are encouraged to share modifications, enhancement
  33:C:/Users/Mafish/Documents/GitHub/MAB_Controller/Libraries/XMCLib/inc\xmc_gpio.h ****  * Infineon Technologies AG dave@infineon.com).                                                    
  34:C:/Users/Mafish/Documents/GitHub/MAB_Controller/Libraries/XMCLib/inc\xmc_gpio.h ****  **************************************************************************************************
  35:C:/Users/Mafish/Documents/GitHub/MAB_Controller/Libraries/XMCLib/inc\xmc_gpio.h ****  *
  36:C:/Users/Mafish/Documents/GitHub/MAB_Controller/Libraries/XMCLib/inc\xmc_gpio.h ****  * Change History
  37:C:/Users/Mafish/Documents/GitHub/MAB_Controller/Libraries/XMCLib/inc\xmc_gpio.h ****  * --------------
  38:C:/Users/Mafish/Documents/GitHub/MAB_Controller/Libraries/XMCLib/inc\xmc_gpio.h ****  *
  39:C:/Users/Mafish/Documents/GitHub/MAB_Controller/Libraries/XMCLib/inc\xmc_gpio.h ****  * 2015-02-20:
  40:C:/Users/Mafish/Documents/GitHub/MAB_Controller/Libraries/XMCLib/inc\xmc_gpio.h ****  *     - Initial draft<br>
  41:C:/Users/Mafish/Documents/GitHub/MAB_Controller/Libraries/XMCLib/inc\xmc_gpio.h ****  *     - Documentation improved <br>
  42:C:/Users/Mafish/Documents/GitHub/MAB_Controller/Libraries/XMCLib/inc\xmc_gpio.h ****  *      
  43:C:/Users/Mafish/Documents/GitHub/MAB_Controller/Libraries/XMCLib/inc\xmc_gpio.h ****  * 2015-06-20:
  44:C:/Users/Mafish/Documents/GitHub/MAB_Controller/Libraries/XMCLib/inc\xmc_gpio.h ****  *     - Removed version macros and declaration of GetDriverVersion API
  45:C:/Users/Mafish/Documents/GitHub/MAB_Controller/Libraries/XMCLib/inc\xmc_gpio.h ****  *
  46:C:/Users/Mafish/Documents/GitHub/MAB_Controller/Libraries/XMCLib/inc\xmc_gpio.h ****  * @endcond
  47:C:/Users/Mafish/Documents/GitHub/MAB_Controller/Libraries/XMCLib/inc\xmc_gpio.h ****  *
  48:C:/Users/Mafish/Documents/GitHub/MAB_Controller/Libraries/XMCLib/inc\xmc_gpio.h ****  */
  49:C:/Users/Mafish/Documents/GitHub/MAB_Controller/Libraries/XMCLib/inc\xmc_gpio.h **** 
  50:C:/Users/Mafish/Documents/GitHub/MAB_Controller/Libraries/XMCLib/inc\xmc_gpio.h **** #ifndef XMC_GPIO_H
  51:C:/Users/Mafish/Documents/GitHub/MAB_Controller/Libraries/XMCLib/inc\xmc_gpio.h **** #define XMC_GPIO_H
  52:C:/Users/Mafish/Documents/GitHub/MAB_Controller/Libraries/XMCLib/inc\xmc_gpio.h **** 
  53:C:/Users/Mafish/Documents/GitHub/MAB_Controller/Libraries/XMCLib/inc\xmc_gpio.h **** /**************************************************************************************************
  54:C:/Users/Mafish/Documents/GitHub/MAB_Controller/Libraries/XMCLib/inc\xmc_gpio.h ****  * HEADER FILES
  55:C:/Users/Mafish/Documents/GitHub/MAB_Controller/Libraries/XMCLib/inc\xmc_gpio.h ****  **************************************************************************************************
  56:C:/Users/Mafish/Documents/GitHub/MAB_Controller/Libraries/XMCLib/inc\xmc_gpio.h **** 
  57:C:/Users/Mafish/Documents/GitHub/MAB_Controller/Libraries/XMCLib/inc\xmc_gpio.h **** #include "xmc_common.h"
  58:C:/Users/Mafish/Documents/GitHub/MAB_Controller/Libraries/XMCLib/inc\xmc_gpio.h **** 
  59:C:/Users/Mafish/Documents/GitHub/MAB_Controller/Libraries/XMCLib/inc\xmc_gpio.h **** /**
  60:C:/Users/Mafish/Documents/GitHub/MAB_Controller/Libraries/XMCLib/inc\xmc_gpio.h ****  * @addtogroup XMClib XMC Peripheral Library
  61:C:/Users/Mafish/Documents/GitHub/MAB_Controller/Libraries/XMCLib/inc\xmc_gpio.h ****  * @{
  62:C:/Users/Mafish/Documents/GitHub/MAB_Controller/Libraries/XMCLib/inc\xmc_gpio.h ****  */
  63:C:/Users/Mafish/Documents/GitHub/MAB_Controller/Libraries/XMCLib/inc\xmc_gpio.h **** 
  64:C:/Users/Mafish/Documents/GitHub/MAB_Controller/Libraries/XMCLib/inc\xmc_gpio.h **** /**
  65:C:/Users/Mafish/Documents/GitHub/MAB_Controller/Libraries/XMCLib/inc\xmc_gpio.h ****  * @addtogroup GPIO
  66:C:/Users/Mafish/Documents/GitHub/MAB_Controller/Libraries/XMCLib/inc\xmc_gpio.h ****  * @brief General Purpose Input Output (GPIO) driver for the XMC microcontroller family.
  67:C:/Users/Mafish/Documents/GitHub/MAB_Controller/Libraries/XMCLib/inc\xmc_gpio.h ****  *
  68:C:/Users/Mafish/Documents/GitHub/MAB_Controller/Libraries/XMCLib/inc\xmc_gpio.h ****  * GPIO driver provide a generic and very flexible software interface for all standard digital I/O 
  69:C:/Users/Mafish/Documents/GitHub/MAB_Controller/Libraries/XMCLib/inc\xmc_gpio.h ****  * Each port slice has individual interfaces for the operation as General Purpose I/O and it furthe
  70:C:/Users/Mafish/Documents/GitHub/MAB_Controller/Libraries/XMCLib/inc\xmc_gpio.h ****  * connectivity to the on-chip periphery and the control for the pad characteristics. 
  71:C:/Users/Mafish/Documents/GitHub/MAB_Controller/Libraries/XMCLib/inc\xmc_gpio.h ****  *
  72:C:/Users/Mafish/Documents/GitHub/MAB_Controller/Libraries/XMCLib/inc\xmc_gpio.h ****  * The driver is divided into Input and Output mode.
  73:C:/Users/Mafish/Documents/GitHub/MAB_Controller/Libraries/XMCLib/inc\xmc_gpio.h ****  *
  74:C:/Users/Mafish/Documents/GitHub/MAB_Controller/Libraries/XMCLib/inc\xmc_gpio.h ****  * Input mode features:
  75:C:/Users/Mafish/Documents/GitHub/MAB_Controller/Libraries/XMCLib/inc\xmc_gpio.h ****  * -# Configuration structure XMC_GPIO_CONFIG_t and initialization function XMC_GPIO_Init()
  76:C:/Users/Mafish/Documents/GitHub/MAB_Controller/Libraries/XMCLib/inc\xmc_gpio.h ****  * -# Allows the selection of weak pull-up or pull-down device. Configuration structure XMC_GPIO_MO
  77:C:/Users/Mafish/Documents/GitHub/MAB_Controller/Libraries/XMCLib/inc\xmc_gpio.h ****  * \if XMC1
  78:C:/Users/Mafish/Documents/GitHub/MAB_Controller/Libraries/XMCLib/inc\xmc_gpio.h ****  * -# Allows the selection of input hysteresis. XMC_GPIO_SetInputHysteresis()
  79:C:/Users/Mafish/Documents/GitHub/MAB_Controller/Libraries/XMCLib/inc\xmc_gpio.h ****  * \endif
  80:C:/Users/Mafish/Documents/GitHub/MAB_Controller/Libraries/XMCLib/inc\xmc_gpio.h ****  *
  81:C:/Users/Mafish/Documents/GitHub/MAB_Controller/Libraries/XMCLib/inc\xmc_gpio.h ****  * 
  82:C:/Users/Mafish/Documents/GitHub/MAB_Controller/Libraries/XMCLib/inc\xmc_gpio.h ****  * Output mode features:
  83:C:/Users/Mafish/Documents/GitHub/MAB_Controller/Libraries/XMCLib/inc\xmc_gpio.h ****  * -# Allows the selection of push pull/open drain and Alternate output. Configuration structure XM
  84:C:/Users/Mafish/Documents/GitHub/MAB_Controller/Libraries/XMCLib/inc\xmc_gpio.h ****  * \if XMC4
  85:C:/Users/Mafish/Documents/GitHub/MAB_Controller/Libraries/XMCLib/inc\xmc_gpio.h ****  * -# Allows the selection of pad driver strength. Configuration structure XMC_GPIO_OUTPUT_STRENGTH
  86:C:/Users/Mafish/Documents/GitHub/MAB_Controller/Libraries/XMCLib/inc\xmc_gpio.h ****  * \endif
  87:C:/Users/Mafish/Documents/GitHub/MAB_Controller/Libraries/XMCLib/inc\xmc_gpio.h ****  *
  88:C:/Users/Mafish/Documents/GitHub/MAB_Controller/Libraries/XMCLib/inc\xmc_gpio.h ****  * -# Allows the selection of initial output level. Configuration structure XMC_GPIO_OUTPUT_LEVEL_t
  89:C:/Users/Mafish/Documents/GitHub/MAB_Controller/Libraries/XMCLib/inc\xmc_gpio.h ****  *
  90:C:/Users/Mafish/Documents/GitHub/MAB_Controller/Libraries/XMCLib/inc\xmc_gpio.h ****  *@{
  91:C:/Users/Mafish/Documents/GitHub/MAB_Controller/Libraries/XMCLib/inc\xmc_gpio.h ****  */
  92:C:/Users/Mafish/Documents/GitHub/MAB_Controller/Libraries/XMCLib/inc\xmc_gpio.h ****  
  93:C:/Users/Mafish/Documents/GitHub/MAB_Controller/Libraries/XMCLib/inc\xmc_gpio.h **** /**************************************************************************************************
  94:C:/Users/Mafish/Documents/GitHub/MAB_Controller/Libraries/XMCLib/inc\xmc_gpio.h ****  * MACROS
  95:C:/Users/Mafish/Documents/GitHub/MAB_Controller/Libraries/XMCLib/inc\xmc_gpio.h ****  **************************************************************************************************
  96:C:/Users/Mafish/Documents/GitHub/MAB_Controller/Libraries/XMCLib/inc\xmc_gpio.h **** 
  97:C:/Users/Mafish/Documents/GitHub/MAB_Controller/Libraries/XMCLib/inc\xmc_gpio.h **** #define PORT_IOCR_PC_Pos PORT0_IOCR0_PC0_Pos
  98:C:/Users/Mafish/Documents/GitHub/MAB_Controller/Libraries/XMCLib/inc\xmc_gpio.h **** #define PORT_IOCR_PC_Msk PORT0_IOCR0_PC0_Msk
  99:C:/Users/Mafish/Documents/GitHub/MAB_Controller/Libraries/XMCLib/inc\xmc_gpio.h **** 
 100:C:/Users/Mafish/Documents/GitHub/MAB_Controller/Libraries/XMCLib/inc\xmc_gpio.h **** #define PORT_IOCR_PC_Size 				(8U)
 101:C:/Users/Mafish/Documents/GitHub/MAB_Controller/Libraries/XMCLib/inc\xmc_gpio.h **** 											
 102:C:/Users/Mafish/Documents/GitHub/MAB_Controller/Libraries/XMCLib/inc\xmc_gpio.h **** 
 103:C:/Users/Mafish/Documents/GitHub/MAB_Controller/Libraries/XMCLib/inc\xmc_gpio.h **** #define XMC_GPIO_CHECK_OUTPUT_LEVEL(level) ((level == XMC_GPIO_OUTPUT_LEVEL_LOW) || \
 104:C:/Users/Mafish/Documents/GitHub/MAB_Controller/Libraries/XMCLib/inc\xmc_gpio.h ****                                             (level == XMC_GPIO_OUTPUT_LEVEL_HIGH))
 105:C:/Users/Mafish/Documents/GitHub/MAB_Controller/Libraries/XMCLib/inc\xmc_gpio.h ****                                             
 106:C:/Users/Mafish/Documents/GitHub/MAB_Controller/Libraries/XMCLib/inc\xmc_gpio.h **** #define XMC_GPIO_CHECK_HWCTRL(hwctrl) ((hwctrl == XMC_GPIO_HWCTRL_DISABLED) || \
 107:C:/Users/Mafish/Documents/GitHub/MAB_Controller/Libraries/XMCLib/inc\xmc_gpio.h ****                                        (hwctrl == XMC_GPIO_HWCTRL_PERIPHERAL1) || \
 108:C:/Users/Mafish/Documents/GitHub/MAB_Controller/Libraries/XMCLib/inc\xmc_gpio.h ****                                        (hwctrl == XMC_GPIO_HWCTRL_PERIPHERAL2))                    
 109:C:/Users/Mafish/Documents/GitHub/MAB_Controller/Libraries/XMCLib/inc\xmc_gpio.h ****                                             
 110:C:/Users/Mafish/Documents/GitHub/MAB_Controller/Libraries/XMCLib/inc\xmc_gpio.h **** /**************************************************************************************************
 111:C:/Users/Mafish/Documents/GitHub/MAB_Controller/Libraries/XMCLib/inc\xmc_gpio.h ****  * ENUMS
 112:C:/Users/Mafish/Documents/GitHub/MAB_Controller/Libraries/XMCLib/inc\xmc_gpio.h ****  **************************************************************************************************
 113:C:/Users/Mafish/Documents/GitHub/MAB_Controller/Libraries/XMCLib/inc\xmc_gpio.h **** 
 114:C:/Users/Mafish/Documents/GitHub/MAB_Controller/Libraries/XMCLib/inc\xmc_gpio.h **** 
 115:C:/Users/Mafish/Documents/GitHub/MAB_Controller/Libraries/XMCLib/inc\xmc_gpio.h **** /**
 116:C:/Users/Mafish/Documents/GitHub/MAB_Controller/Libraries/XMCLib/inc\xmc_gpio.h ****  * Defines output level of a pin. Use type \a XMC_GPIO_OUTPUT_LEVEL_t for this enum.
 117:C:/Users/Mafish/Documents/GitHub/MAB_Controller/Libraries/XMCLib/inc\xmc_gpio.h ****  */
 118:C:/Users/Mafish/Documents/GitHub/MAB_Controller/Libraries/XMCLib/inc\xmc_gpio.h **** typedef enum XMC_GPIO_OUTPUT_LEVEL
 119:C:/Users/Mafish/Documents/GitHub/MAB_Controller/Libraries/XMCLib/inc\xmc_gpio.h **** {
 120:C:/Users/Mafish/Documents/GitHub/MAB_Controller/Libraries/XMCLib/inc\xmc_gpio.h ****   XMC_GPIO_OUTPUT_LEVEL_LOW  = 0x10000U, /**<  Reset bit */
 121:C:/Users/Mafish/Documents/GitHub/MAB_Controller/Libraries/XMCLib/inc\xmc_gpio.h ****   XMC_GPIO_OUTPUT_LEVEL_HIGH = 0x1U, 	/**< Set bit  */
 122:C:/Users/Mafish/Documents/GitHub/MAB_Controller/Libraries/XMCLib/inc\xmc_gpio.h **** } XMC_GPIO_OUTPUT_LEVEL_t;
 123:C:/Users/Mafish/Documents/GitHub/MAB_Controller/Libraries/XMCLib/inc\xmc_gpio.h **** 
 124:C:/Users/Mafish/Documents/GitHub/MAB_Controller/Libraries/XMCLib/inc\xmc_gpio.h **** /**
 125:C:/Users/Mafish/Documents/GitHub/MAB_Controller/Libraries/XMCLib/inc\xmc_gpio.h ****  * Defines direct hardware control characteristics of the pin . Use type \a XMC_GPIO_HWCTRL_t for t
 126:C:/Users/Mafish/Documents/GitHub/MAB_Controller/Libraries/XMCLib/inc\xmc_gpio.h ****  */
 127:C:/Users/Mafish/Documents/GitHub/MAB_Controller/Libraries/XMCLib/inc\xmc_gpio.h **** typedef enum XMC_GPIO_HWCTRL
 128:C:/Users/Mafish/Documents/GitHub/MAB_Controller/Libraries/XMCLib/inc\xmc_gpio.h **** {
 129:C:/Users/Mafish/Documents/GitHub/MAB_Controller/Libraries/XMCLib/inc\xmc_gpio.h ****   XMC_GPIO_HWCTRL_DISABLED     = 0x0U, /**<  Software control only */
 130:C:/Users/Mafish/Documents/GitHub/MAB_Controller/Libraries/XMCLib/inc\xmc_gpio.h ****   XMC_GPIO_HWCTRL_PERIPHERAL1  = 0x1U, /**<  HWI0/HWO0 control path can override the software confi
 131:C:/Users/Mafish/Documents/GitHub/MAB_Controller/Libraries/XMCLib/inc\xmc_gpio.h ****   XMC_GPIO_HWCTRL_PERIPHERAL2  = 0x2U  /**<  HWI1/HWO1 control path can override the software confi
 132:C:/Users/Mafish/Documents/GitHub/MAB_Controller/Libraries/XMCLib/inc\xmc_gpio.h **** } XMC_GPIO_HWCTRL_t;
 133:C:/Users/Mafish/Documents/GitHub/MAB_Controller/Libraries/XMCLib/inc\xmc_gpio.h **** 
 134:C:/Users/Mafish/Documents/GitHub/MAB_Controller/Libraries/XMCLib/inc\xmc_gpio.h **** /**************************************************************************************************
 135:C:/Users/Mafish/Documents/GitHub/MAB_Controller/Libraries/XMCLib/inc\xmc_gpio.h ****  * DEVICE FAMILY EXTENSIONS
 136:C:/Users/Mafish/Documents/GitHub/MAB_Controller/Libraries/XMCLib/inc\xmc_gpio.h ****  **************************************************************************************************
 137:C:/Users/Mafish/Documents/GitHub/MAB_Controller/Libraries/XMCLib/inc\xmc_gpio.h **** 
 138:C:/Users/Mafish/Documents/GitHub/MAB_Controller/Libraries/XMCLib/inc\xmc_gpio.h ****  #if UC_FAMILY == XMC1
 139:C:/Users/Mafish/Documents/GitHub/MAB_Controller/Libraries/XMCLib/inc\xmc_gpio.h **** #include "xmc1_gpio.h"
 140:C:/Users/Mafish/Documents/GitHub/MAB_Controller/Libraries/XMCLib/inc\xmc_gpio.h **** #elif UC_FAMILY == XMC4
 141:C:/Users/Mafish/Documents/GitHub/MAB_Controller/Libraries/XMCLib/inc\xmc_gpio.h **** #include "xmc4_gpio.h"
 142:C:/Users/Mafish/Documents/GitHub/MAB_Controller/Libraries/XMCLib/inc\xmc_gpio.h **** #else
 143:C:/Users/Mafish/Documents/GitHub/MAB_Controller/Libraries/XMCLib/inc\xmc_gpio.h **** #error "xmc_gpio.h: family device not supported"
 144:C:/Users/Mafish/Documents/GitHub/MAB_Controller/Libraries/XMCLib/inc\xmc_gpio.h **** #endif
 145:C:/Users/Mafish/Documents/GitHub/MAB_Controller/Libraries/XMCLib/inc\xmc_gpio.h **** 
 146:C:/Users/Mafish/Documents/GitHub/MAB_Controller/Libraries/XMCLib/inc\xmc_gpio.h **** /**************************************************************************************************
 147:C:/Users/Mafish/Documents/GitHub/MAB_Controller/Libraries/XMCLib/inc\xmc_gpio.h ****  * API PROTOTYPES
 148:C:/Users/Mafish/Documents/GitHub/MAB_Controller/Libraries/XMCLib/inc\xmc_gpio.h ****  **************************************************************************************************
 149:C:/Users/Mafish/Documents/GitHub/MAB_Controller/Libraries/XMCLib/inc\xmc_gpio.h **** 
 150:C:/Users/Mafish/Documents/GitHub/MAB_Controller/Libraries/XMCLib/inc\xmc_gpio.h **** #ifdef __cplusplus
 151:C:/Users/Mafish/Documents/GitHub/MAB_Controller/Libraries/XMCLib/inc\xmc_gpio.h **** extern "C" {
 152:C:/Users/Mafish/Documents/GitHub/MAB_Controller/Libraries/XMCLib/inc\xmc_gpio.h **** #endif
 153:C:/Users/Mafish/Documents/GitHub/MAB_Controller/Libraries/XMCLib/inc\xmc_gpio.h **** 
 154:C:/Users/Mafish/Documents/GitHub/MAB_Controller/Libraries/XMCLib/inc\xmc_gpio.h **** 
 155:C:/Users/Mafish/Documents/GitHub/MAB_Controller/Libraries/XMCLib/inc\xmc_gpio.h **** /**
 156:C:/Users/Mafish/Documents/GitHub/MAB_Controller/Libraries/XMCLib/inc\xmc_gpio.h ****  * @param  port	  Constant pointer pointing to GPIO port, to access port registers like Pn_OUT,Pn_O
 157:C:/Users/Mafish/Documents/GitHub/MAB_Controller/Libraries/XMCLib/inc\xmc_gpio.h ****  * @param  pin	  Port pin number.
 158:C:/Users/Mafish/Documents/GitHub/MAB_Controller/Libraries/XMCLib/inc\xmc_gpio.h ****  * @param  config GPIO configuration data structure. Refer data structure @ref XMC_GPIO_CONFIG_t fo
 159:C:/Users/Mafish/Documents/GitHub/MAB_Controller/Libraries/XMCLib/inc\xmc_gpio.h ****  *
 160:C:/Users/Mafish/Documents/GitHub/MAB_Controller/Libraries/XMCLib/inc\xmc_gpio.h ****  * @return None
 161:C:/Users/Mafish/Documents/GitHub/MAB_Controller/Libraries/XMCLib/inc\xmc_gpio.h ****  *
 162:C:/Users/Mafish/Documents/GitHub/MAB_Controller/Libraries/XMCLib/inc\xmc_gpio.h ****  * \par<b>Description:</b><br>
 163:C:/Users/Mafish/Documents/GitHub/MAB_Controller/Libraries/XMCLib/inc\xmc_gpio.h ****  * \if XMC1
 164:C:/Users/Mafish/Documents/GitHub/MAB_Controller/Libraries/XMCLib/inc\xmc_gpio.h ****  * Initializes input / output mode settings like, pull up / pull down devices,hysteresis, push pull
 165:C:/Users/Mafish/Documents/GitHub/MAB_Controller/Libraries/XMCLib/inc\xmc_gpio.h ****  * Also configures alternate function outputs and clears hardware port control for a selected \a po
 166:C:/Users/Mafish/Documents/GitHub/MAB_Controller/Libraries/XMCLib/inc\xmc_gpio.h ****  * \a config provides selected I/O settings. It configures hardware registers Pn_IOCR,Pn_OUT, Pn_OM
 167:C:/Users/Mafish/Documents/GitHub/MAB_Controller/Libraries/XMCLib/inc\xmc_gpio.h ****  * \endif
 168:C:/Users/Mafish/Documents/GitHub/MAB_Controller/Libraries/XMCLib/inc\xmc_gpio.h ****  * \if XMC4
 169:C:/Users/Mafish/Documents/GitHub/MAB_Controller/Libraries/XMCLib/inc\xmc_gpio.h ****  * Initializes input / output mode settings like, pull up / pull down devices,push pull /open drain
 170:C:/Users/Mafish/Documents/GitHub/MAB_Controller/Libraries/XMCLib/inc\xmc_gpio.h ****  * Also configures alternate function outputs and clears hardware port control for selected \a port
 171:C:/Users/Mafish/Documents/GitHub/MAB_Controller/Libraries/XMCLib/inc\xmc_gpio.h ****  * It configures hardware registers Pn_IOCR,Pn_OUT,Pn_OMR,Pn_PDISC and Pn_PDR.\n
 172:C:/Users/Mafish/Documents/GitHub/MAB_Controller/Libraries/XMCLib/inc\xmc_gpio.h ****  * \endif
 173:C:/Users/Mafish/Documents/GitHub/MAB_Controller/Libraries/XMCLib/inc\xmc_gpio.h ****  *
 174:C:/Users/Mafish/Documents/GitHub/MAB_Controller/Libraries/XMCLib/inc\xmc_gpio.h ****  * \par<b>Related APIs:</b><BR>
 175:C:/Users/Mafish/Documents/GitHub/MAB_Controller/Libraries/XMCLib/inc\xmc_gpio.h ****  *  None
 176:C:/Users/Mafish/Documents/GitHub/MAB_Controller/Libraries/XMCLib/inc\xmc_gpio.h ****  *
 177:C:/Users/Mafish/Documents/GitHub/MAB_Controller/Libraries/XMCLib/inc\xmc_gpio.h ****  * \par<b>Note:</b><br>
 178:C:/Users/Mafish/Documents/GitHub/MAB_Controller/Libraries/XMCLib/inc\xmc_gpio.h ****  * This API is called in definition of DAVE_init by code generation and therefore should not be exp
 179:C:/Users/Mafish/Documents/GitHub/MAB_Controller/Libraries/XMCLib/inc\xmc_gpio.h ****  * for the normal operation. Use other APIs only after DAVE_init is called successfully (returns DA
 180:C:/Users/Mafish/Documents/GitHub/MAB_Controller/Libraries/XMCLib/inc\xmc_gpio.h ****  *
 181:C:/Users/Mafish/Documents/GitHub/MAB_Controller/Libraries/XMCLib/inc\xmc_gpio.h ****  *
 182:C:/Users/Mafish/Documents/GitHub/MAB_Controller/Libraries/XMCLib/inc\xmc_gpio.h ****  */
 183:C:/Users/Mafish/Documents/GitHub/MAB_Controller/Libraries/XMCLib/inc\xmc_gpio.h **** 
 184:C:/Users/Mafish/Documents/GitHub/MAB_Controller/Libraries/XMCLib/inc\xmc_gpio.h ****  
 185:C:/Users/Mafish/Documents/GitHub/MAB_Controller/Libraries/XMCLib/inc\xmc_gpio.h **** void XMC_GPIO_Init(XMC_GPIO_PORT_t *const port, const uint8_t pin, const XMC_GPIO_CONFIG_t *const c
 186:C:/Users/Mafish/Documents/GitHub/MAB_Controller/Libraries/XMCLib/inc\xmc_gpio.h ****  
 187:C:/Users/Mafish/Documents/GitHub/MAB_Controller/Libraries/XMCLib/inc\xmc_gpio.h **** /**
 188:C:/Users/Mafish/Documents/GitHub/MAB_Controller/Libraries/XMCLib/inc\xmc_gpio.h ****  *
 189:C:/Users/Mafish/Documents/GitHub/MAB_Controller/Libraries/XMCLib/inc\xmc_gpio.h ****  * @param  port	Constant pointer pointing to GPIO port, to access hardware register Pn_IOCR.
 190:C:/Users/Mafish/Documents/GitHub/MAB_Controller/Libraries/XMCLib/inc\xmc_gpio.h ****  * @param  pin	Port pin number.
 191:C:/Users/Mafish/Documents/GitHub/MAB_Controller/Libraries/XMCLib/inc\xmc_gpio.h ****  * @param  mode input / output functionality selection. Refer @ref XMC_GPIO_MODE_t for valid values
 192:C:/Users/Mafish/Documents/GitHub/MAB_Controller/Libraries/XMCLib/inc\xmc_gpio.h ****  *
 193:C:/Users/Mafish/Documents/GitHub/MAB_Controller/Libraries/XMCLib/inc\xmc_gpio.h ****  * @return None
 194:C:/Users/Mafish/Documents/GitHub/MAB_Controller/Libraries/XMCLib/inc\xmc_gpio.h ****  *
 195:C:/Users/Mafish/Documents/GitHub/MAB_Controller/Libraries/XMCLib/inc\xmc_gpio.h ****  * \par<b>Description:</b><br>
 196:C:/Users/Mafish/Documents/GitHub/MAB_Controller/Libraries/XMCLib/inc\xmc_gpio.h ****  * Sets digital input and output driver functionality and characteristics of a GPIO port pin. It co
 197:C:/Users/Mafish/Documents/GitHub/MAB_Controller/Libraries/XMCLib/inc\xmc_gpio.h ****  * registers Pn_IOCR. \a mode is initially configured during initialization in XMC_GPIO_Init(). Cal
 198:C:/Users/Mafish/Documents/GitHub/MAB_Controller/Libraries/XMCLib/inc\xmc_gpio.h ****  * the port direction functionality as needed later in the program.
 199:C:/Users/Mafish/Documents/GitHub/MAB_Controller/Libraries/XMCLib/inc\xmc_gpio.h ****  *
 200:C:/Users/Mafish/Documents/GitHub/MAB_Controller/Libraries/XMCLib/inc\xmc_gpio.h ****  * \par<b>Related APIs:</b><BR>
 201:C:/Users/Mafish/Documents/GitHub/MAB_Controller/Libraries/XMCLib/inc\xmc_gpio.h ****  *  None
 202:C:/Users/Mafish/Documents/GitHub/MAB_Controller/Libraries/XMCLib/inc\xmc_gpio.h ****  *
 203:C:/Users/Mafish/Documents/GitHub/MAB_Controller/Libraries/XMCLib/inc\xmc_gpio.h ****  */
 204:C:/Users/Mafish/Documents/GitHub/MAB_Controller/Libraries/XMCLib/inc\xmc_gpio.h **** 
 205:C:/Users/Mafish/Documents/GitHub/MAB_Controller/Libraries/XMCLib/inc\xmc_gpio.h **** void XMC_GPIO_SetMode(XMC_GPIO_PORT_t *const port, const uint8_t pin, const XMC_GPIO_MODE_t mode);
 206:C:/Users/Mafish/Documents/GitHub/MAB_Controller/Libraries/XMCLib/inc\xmc_gpio.h **** 
 207:C:/Users/Mafish/Documents/GitHub/MAB_Controller/Libraries/XMCLib/inc\xmc_gpio.h **** 
 208:C:/Users/Mafish/Documents/GitHub/MAB_Controller/Libraries/XMCLib/inc\xmc_gpio.h **** /**
 209:C:/Users/Mafish/Documents/GitHub/MAB_Controller/Libraries/XMCLib/inc\xmc_gpio.h ****  *
 210:C:/Users/Mafish/Documents/GitHub/MAB_Controller/Libraries/XMCLib/inc\xmc_gpio.h ****  * @param  port	 Constant pointer pointing to GPIO port, to access hardware register Pn_OMR.
 211:C:/Users/Mafish/Documents/GitHub/MAB_Controller/Libraries/XMCLib/inc\xmc_gpio.h ****  * @param  pin	 Port pin number.
 212:C:/Users/Mafish/Documents/GitHub/MAB_Controller/Libraries/XMCLib/inc\xmc_gpio.h ****  * @param  level output level selection. Refer @ref XMC_GPIO_OUTPUT_LEVEL_t for valid values.
 213:C:/Users/Mafish/Documents/GitHub/MAB_Controller/Libraries/XMCLib/inc\xmc_gpio.h ****  *
 214:C:/Users/Mafish/Documents/GitHub/MAB_Controller/Libraries/XMCLib/inc\xmc_gpio.h ****  * @return None
 215:C:/Users/Mafish/Documents/GitHub/MAB_Controller/Libraries/XMCLib/inc\xmc_gpio.h ****  *
 216:C:/Users/Mafish/Documents/GitHub/MAB_Controller/Libraries/XMCLib/inc\xmc_gpio.h ****  * \par<b>Description:</b><br>
 217:C:/Users/Mafish/Documents/GitHub/MAB_Controller/Libraries/XMCLib/inc\xmc_gpio.h ****  * Set port pin output level to high or low.It configures hardware registers Pn_OMR.\a level is ini
 218:C:/Users/Mafish/Documents/GitHub/MAB_Controller/Libraries/XMCLib/inc\xmc_gpio.h ****  * configured during initialization in XMC_GPIO_Init(). Call this API to alter output level as need
 219:C:/Users/Mafish/Documents/GitHub/MAB_Controller/Libraries/XMCLib/inc\xmc_gpio.h ****  *
 220:C:/Users/Mafish/Documents/GitHub/MAB_Controller/Libraries/XMCLib/inc\xmc_gpio.h ****  * \par<b>Related APIs:</b><BR>
 221:C:/Users/Mafish/Documents/GitHub/MAB_Controller/Libraries/XMCLib/inc\xmc_gpio.h ****  *  XMC_GPIO_SetOutputHigh(), XMC_GPIO_SetOutputLow().
 222:C:/Users/Mafish/Documents/GitHub/MAB_Controller/Libraries/XMCLib/inc\xmc_gpio.h ****  *
 223:C:/Users/Mafish/Documents/GitHub/MAB_Controller/Libraries/XMCLib/inc\xmc_gpio.h ****  * \par<b>Note:</b><br>
 224:C:/Users/Mafish/Documents/GitHub/MAB_Controller/Libraries/XMCLib/inc\xmc_gpio.h ****  * Prior to this api, user has to configure port pin to output mode using XMC_GPIO_SetMode().
 225:C:/Users/Mafish/Documents/GitHub/MAB_Controller/Libraries/XMCLib/inc\xmc_gpio.h ****  *
 226:C:/Users/Mafish/Documents/GitHub/MAB_Controller/Libraries/XMCLib/inc\xmc_gpio.h ****  */
 227:C:/Users/Mafish/Documents/GitHub/MAB_Controller/Libraries/XMCLib/inc\xmc_gpio.h **** 
 228:C:/Users/Mafish/Documents/GitHub/MAB_Controller/Libraries/XMCLib/inc\xmc_gpio.h **** 
 229:C:/Users/Mafish/Documents/GitHub/MAB_Controller/Libraries/XMCLib/inc\xmc_gpio.h **** __STATIC_INLINE void XMC_GPIO_SetOutputLevel(XMC_GPIO_PORT_t *const port, const uint8_t pin, const 
 230:C:/Users/Mafish/Documents/GitHub/MAB_Controller/Libraries/XMCLib/inc\xmc_gpio.h **** {
 231:C:/Users/Mafish/Documents/GitHub/MAB_Controller/Libraries/XMCLib/inc\xmc_gpio.h ****   XMC_ASSERT("XMC_GPIO_SetOutputLevel: Invalid port", XMC_GPIO_CHECK_OUTPUT_PORT(port));
 232:C:/Users/Mafish/Documents/GitHub/MAB_Controller/Libraries/XMCLib/inc\xmc_gpio.h ****   XMC_ASSERT("XMC_GPIO_SetOutputLevel: Invalid output level", XMC_GPIO_CHECK_OUTPUT_LEVEL(level));
 233:C:/Users/Mafish/Documents/GitHub/MAB_Controller/Libraries/XMCLib/inc\xmc_gpio.h ****   
 234:C:/Users/Mafish/Documents/GitHub/MAB_Controller/Libraries/XMCLib/inc\xmc_gpio.h ****   port->OMR = (uint32_t)level << pin;
 235:C:/Users/Mafish/Documents/GitHub/MAB_Controller/Libraries/XMCLib/inc\xmc_gpio.h **** }
 236:C:/Users/Mafish/Documents/GitHub/MAB_Controller/Libraries/XMCLib/inc\xmc_gpio.h **** 
 237:C:/Users/Mafish/Documents/GitHub/MAB_Controller/Libraries/XMCLib/inc\xmc_gpio.h **** 
 238:C:/Users/Mafish/Documents/GitHub/MAB_Controller/Libraries/XMCLib/inc\xmc_gpio.h **** /**
 239:C:/Users/Mafish/Documents/GitHub/MAB_Controller/Libraries/XMCLib/inc\xmc_gpio.h ****  * @param  port constant pointer pointing to GPIO port, to access hardware register Pn_OMR.
 240:C:/Users/Mafish/Documents/GitHub/MAB_Controller/Libraries/XMCLib/inc\xmc_gpio.h ****  * @param  pin	Port pin number.
 241:C:/Users/Mafish/Documents/GitHub/MAB_Controller/Libraries/XMCLib/inc\xmc_gpio.h ****  *
 242:C:/Users/Mafish/Documents/GitHub/MAB_Controller/Libraries/XMCLib/inc\xmc_gpio.h ****  * @return None
 243:C:/Users/Mafish/Documents/GitHub/MAB_Controller/Libraries/XMCLib/inc\xmc_gpio.h ****  *
 244:C:/Users/Mafish/Documents/GitHub/MAB_Controller/Libraries/XMCLib/inc\xmc_gpio.h ****  * \par<b>Description:</b><br>
 245:C:/Users/Mafish/Documents/GitHub/MAB_Controller/Libraries/XMCLib/inc\xmc_gpio.h ****  *  Sets port pin output to high. It configures hardware registers Pn_OMR.
 246:C:/Users/Mafish/Documents/GitHub/MAB_Controller/Libraries/XMCLib/inc\xmc_gpio.h ****  *
 247:C:/Users/Mafish/Documents/GitHub/MAB_Controller/Libraries/XMCLib/inc\xmc_gpio.h ****  *  \par<b>Related APIs:</b><BR>
 248:C:/Users/Mafish/Documents/GitHub/MAB_Controller/Libraries/XMCLib/inc\xmc_gpio.h ****  *  XMC_GPIO_SetOutputLow()
 249:C:/Users/Mafish/Documents/GitHub/MAB_Controller/Libraries/XMCLib/inc\xmc_gpio.h ****  *
 250:C:/Users/Mafish/Documents/GitHub/MAB_Controller/Libraries/XMCLib/inc\xmc_gpio.h ****  * \par<b>Note:</b><br>
 251:C:/Users/Mafish/Documents/GitHub/MAB_Controller/Libraries/XMCLib/inc\xmc_gpio.h ****  * Prior to this api, user has to configure port pin to output mode using XMC_GPIO_SetMode().\n
 252:C:/Users/Mafish/Documents/GitHub/MAB_Controller/Libraries/XMCLib/inc\xmc_gpio.h ****  * Register Pn_OMR is virtual and does not contain any flip-flop. A read action delivers the value 
 253:C:/Users/Mafish/Documents/GitHub/MAB_Controller/Libraries/XMCLib/inc\xmc_gpio.h ****  *
 254:C:/Users/Mafish/Documents/GitHub/MAB_Controller/Libraries/XMCLib/inc\xmc_gpio.h ****  */
 255:C:/Users/Mafish/Documents/GitHub/MAB_Controller/Libraries/XMCLib/inc\xmc_gpio.h **** 
 256:C:/Users/Mafish/Documents/GitHub/MAB_Controller/Libraries/XMCLib/inc\xmc_gpio.h **** __STATIC_INLINE void XMC_GPIO_SetOutputHigh(XMC_GPIO_PORT_t *const port, const uint8_t pin)
 257:C:/Users/Mafish/Documents/GitHub/MAB_Controller/Libraries/XMCLib/inc\xmc_gpio.h **** {
  27              	 .loc 1 257 0
  28              	 .cfi_startproc
  29              	 
  30              	 
  31              	 
  32 0000 80B4     	 push {r7}
  33              	.LCFI0:
  34              	 .cfi_def_cfa_offset 4
  35              	 .cfi_offset 7,-4
  36 0002 83B0     	 sub sp,sp,#12
  37              	.LCFI1:
  38              	 .cfi_def_cfa_offset 16
  39 0004 00AF     	 add r7,sp,#0
  40              	.LCFI2:
  41              	 .cfi_def_cfa_register 7
  42 0006 7860     	 str r0,[r7,#4]
  43 0008 0B46     	 mov r3,r1
  44 000a FB70     	 strb r3,[r7,#3]
 258:C:/Users/Mafish/Documents/GitHub/MAB_Controller/Libraries/XMCLib/inc\xmc_gpio.h ****   XMC_ASSERT("XMC_GPIO_SetOutputHigh: Invalid port", XMC_GPIO_CHECK_OUTPUT_PORT(port));
 259:C:/Users/Mafish/Documents/GitHub/MAB_Controller/Libraries/XMCLib/inc\xmc_gpio.h **** 
 260:C:/Users/Mafish/Documents/GitHub/MAB_Controller/Libraries/XMCLib/inc\xmc_gpio.h ****   port->OMR = (uint32_t)0x1U << pin;
  45              	 .loc 1 260 0
  46 000c FB78     	 ldrb r3,[r7,#3]
  47 000e 0122     	 movs r2,#1
  48 0010 9A40     	 lsls r2,r2,r3
  49 0012 7B68     	 ldr r3,[r7,#4]
  50 0014 5A60     	 str r2,[r3,#4]
 261:C:/Users/Mafish/Documents/GitHub/MAB_Controller/Libraries/XMCLib/inc\xmc_gpio.h **** }
  51              	 .loc 1 261 0
  52 0016 0C37     	 adds r7,r7,#12
  53              	.LCFI3:
  54              	 .cfi_def_cfa_offset 4
  55 0018 BD46     	 mov sp,r7
  56              	.LCFI4:
  57              	 .cfi_def_cfa_register 13
  58              	 
  59 001a 5DF8047B 	 ldr r7,[sp],#4
  60              	.LCFI5:
  61              	 .cfi_restore 7
  62              	 .cfi_def_cfa_offset 0
  63 001e 7047     	 bx lr
  64              	 .cfi_endproc
  65              	.LFE164:
  67              	 .section .text.XMC_GPIO_SetOutputLow,"ax",%progbits
  68              	 .align 2
  69              	 .thumb
  70              	 .thumb_func
  72              	XMC_GPIO_SetOutputLow:
  73              	.LFB165:
 262:C:/Users/Mafish/Documents/GitHub/MAB_Controller/Libraries/XMCLib/inc\xmc_gpio.h **** 
 263:C:/Users/Mafish/Documents/GitHub/MAB_Controller/Libraries/XMCLib/inc\xmc_gpio.h **** /**
 264:C:/Users/Mafish/Documents/GitHub/MAB_Controller/Libraries/XMCLib/inc\xmc_gpio.h ****  *
 265:C:/Users/Mafish/Documents/GitHub/MAB_Controller/Libraries/XMCLib/inc\xmc_gpio.h ****  * @param  port	constant pointer pointing to GPIO port, to access hardware register Pn_OMR.
 266:C:/Users/Mafish/Documents/GitHub/MAB_Controller/Libraries/XMCLib/inc\xmc_gpio.h ****  * @param  pin	port pin number.
 267:C:/Users/Mafish/Documents/GitHub/MAB_Controller/Libraries/XMCLib/inc\xmc_gpio.h ****  *
 268:C:/Users/Mafish/Documents/GitHub/MAB_Controller/Libraries/XMCLib/inc\xmc_gpio.h ****  * @return  None
 269:C:/Users/Mafish/Documents/GitHub/MAB_Controller/Libraries/XMCLib/inc\xmc_gpio.h ****  *
 270:C:/Users/Mafish/Documents/GitHub/MAB_Controller/Libraries/XMCLib/inc\xmc_gpio.h ****  *\par<b>Description:</b><br>
 271:C:/Users/Mafish/Documents/GitHub/MAB_Controller/Libraries/XMCLib/inc\xmc_gpio.h ****  * Sets port pin output to low. It configures hardware registers Pn_OMR.\n
 272:C:/Users/Mafish/Documents/GitHub/MAB_Controller/Libraries/XMCLib/inc\xmc_gpio.h ****  *
 273:C:/Users/Mafish/Documents/GitHub/MAB_Controller/Libraries/XMCLib/inc\xmc_gpio.h ****  * \par<b>Related APIs:</b><BR>>
 274:C:/Users/Mafish/Documents/GitHub/MAB_Controller/Libraries/XMCLib/inc\xmc_gpio.h ****  * XMC_GPIO_SetOutputHigh()
 275:C:/Users/Mafish/Documents/GitHub/MAB_Controller/Libraries/XMCLib/inc\xmc_gpio.h ****  *
 276:C:/Users/Mafish/Documents/GitHub/MAB_Controller/Libraries/XMCLib/inc\xmc_gpio.h ****  *\par<b>Note:</b><br>
 277:C:/Users/Mafish/Documents/GitHub/MAB_Controller/Libraries/XMCLib/inc\xmc_gpio.h ****  * Prior to this api, user has to configure port pin to output mode using XMC_GPIO_SetMode().
 278:C:/Users/Mafish/Documents/GitHub/MAB_Controller/Libraries/XMCLib/inc\xmc_gpio.h ****  * Register Pn_OMR is virtual and does not contain any flip-flop. A read action delivers the value 
 279:C:/Users/Mafish/Documents/GitHub/MAB_Controller/Libraries/XMCLib/inc\xmc_gpio.h ****  *
 280:C:/Users/Mafish/Documents/GitHub/MAB_Controller/Libraries/XMCLib/inc\xmc_gpio.h ****  */
 281:C:/Users/Mafish/Documents/GitHub/MAB_Controller/Libraries/XMCLib/inc\xmc_gpio.h **** 
 282:C:/Users/Mafish/Documents/GitHub/MAB_Controller/Libraries/XMCLib/inc\xmc_gpio.h **** __STATIC_INLINE void XMC_GPIO_SetOutputLow(XMC_GPIO_PORT_t *const port, const uint8_t pin)
 283:C:/Users/Mafish/Documents/GitHub/MAB_Controller/Libraries/XMCLib/inc\xmc_gpio.h **** {
  74              	 .loc 1 283 0
  75              	 .cfi_startproc
  76              	 
  77              	 
  78              	 
  79 0000 80B4     	 push {r7}
  80              	.LCFI6:
  81              	 .cfi_def_cfa_offset 4
  82              	 .cfi_offset 7,-4
  83 0002 83B0     	 sub sp,sp,#12
  84              	.LCFI7:
  85              	 .cfi_def_cfa_offset 16
  86 0004 00AF     	 add r7,sp,#0
  87              	.LCFI8:
  88              	 .cfi_def_cfa_register 7
  89 0006 7860     	 str r0,[r7,#4]
  90 0008 0B46     	 mov r3,r1
  91 000a FB70     	 strb r3,[r7,#3]
 284:C:/Users/Mafish/Documents/GitHub/MAB_Controller/Libraries/XMCLib/inc\xmc_gpio.h ****   XMC_ASSERT("XMC_GPIO_SetOutputLow: Invalid port", XMC_GPIO_CHECK_OUTPUT_PORT(port));
 285:C:/Users/Mafish/Documents/GitHub/MAB_Controller/Libraries/XMCLib/inc\xmc_gpio.h **** 
 286:C:/Users/Mafish/Documents/GitHub/MAB_Controller/Libraries/XMCLib/inc\xmc_gpio.h ****   port->OMR = 0x10000U << pin;
  92              	 .loc 1 286 0
  93 000c FB78     	 ldrb r3,[r7,#3]
  94 000e 4FF48032 	 mov r2,#65536
  95 0012 9A40     	 lsls r2,r2,r3
  96 0014 7B68     	 ldr r3,[r7,#4]
  97 0016 5A60     	 str r2,[r3,#4]
 287:C:/Users/Mafish/Documents/GitHub/MAB_Controller/Libraries/XMCLib/inc\xmc_gpio.h **** }
  98              	 .loc 1 287 0
  99 0018 0C37     	 adds r7,r7,#12
 100              	.LCFI9:
 101              	 .cfi_def_cfa_offset 4
 102 001a BD46     	 mov sp,r7
 103              	.LCFI10:
 104              	 .cfi_def_cfa_register 13
 105              	 
 106 001c 5DF8047B 	 ldr r7,[sp],#4
 107              	.LCFI11:
 108              	 .cfi_restore 7
 109              	 .cfi_def_cfa_offset 0
 110 0020 7047     	 bx lr
 111              	 .cfi_endproc
 112              	.LFE165:
 114 0022 00BF     	 .section .text.XMC_GPIO_ToggleOutput,"ax",%progbits
 115              	 .align 2
 116              	 .thumb
 117              	 .thumb_func
 119              	XMC_GPIO_ToggleOutput:
 120              	.LFB166:
 288:C:/Users/Mafish/Documents/GitHub/MAB_Controller/Libraries/XMCLib/inc\xmc_gpio.h **** 
 289:C:/Users/Mafish/Documents/GitHub/MAB_Controller/Libraries/XMCLib/inc\xmc_gpio.h **** /**
 290:C:/Users/Mafish/Documents/GitHub/MAB_Controller/Libraries/XMCLib/inc\xmc_gpio.h ****  *
 291:C:/Users/Mafish/Documents/GitHub/MAB_Controller/Libraries/XMCLib/inc\xmc_gpio.h ****  * @param port constant pointer pointing to GPIO port, to access hardware register Pn_OMR.
 292:C:/Users/Mafish/Documents/GitHub/MAB_Controller/Libraries/XMCLib/inc\xmc_gpio.h ****  * @param pin  port pin number.
 293:C:/Users/Mafish/Documents/GitHub/MAB_Controller/Libraries/XMCLib/inc\xmc_gpio.h ****  *
 294:C:/Users/Mafish/Documents/GitHub/MAB_Controller/Libraries/XMCLib/inc\xmc_gpio.h ****  * @return None
 295:C:/Users/Mafish/Documents/GitHub/MAB_Controller/Libraries/XMCLib/inc\xmc_gpio.h ****  *
 296:C:/Users/Mafish/Documents/GitHub/MAB_Controller/Libraries/XMCLib/inc\xmc_gpio.h ****  * \par<b>Description:</b><br>
 297:C:/Users/Mafish/Documents/GitHub/MAB_Controller/Libraries/XMCLib/inc\xmc_gpio.h ****  * Configures port pin output to Toggle. It configures hardware registers Pn_OMR.
 298:C:/Users/Mafish/Documents/GitHub/MAB_Controller/Libraries/XMCLib/inc\xmc_gpio.h ****  *
 299:C:/Users/Mafish/Documents/GitHub/MAB_Controller/Libraries/XMCLib/inc\xmc_gpio.h ****  * \par<b>Related APIs:</b><BR>
 300:C:/Users/Mafish/Documents/GitHub/MAB_Controller/Libraries/XMCLib/inc\xmc_gpio.h ****  * XMC_GPIO_SetOutputHigh(), XMC_GPIO_SetOutputLow().
 301:C:/Users/Mafish/Documents/GitHub/MAB_Controller/Libraries/XMCLib/inc\xmc_gpio.h ****  *
 302:C:/Users/Mafish/Documents/GitHub/MAB_Controller/Libraries/XMCLib/inc\xmc_gpio.h ****  * \par<b>Note:</b><br>
 303:C:/Users/Mafish/Documents/GitHub/MAB_Controller/Libraries/XMCLib/inc\xmc_gpio.h ****  * Prior to this api, user has to configure port pin to output mode using XMC_GPIO_SetMode(). Regis
 304:C:/Users/Mafish/Documents/GitHub/MAB_Controller/Libraries/XMCLib/inc\xmc_gpio.h ****  * and does not contain any flip-flop. A read action delivers the value of 0.
 305:C:/Users/Mafish/Documents/GitHub/MAB_Controller/Libraries/XMCLib/inc\xmc_gpio.h ****  *
 306:C:/Users/Mafish/Documents/GitHub/MAB_Controller/Libraries/XMCLib/inc\xmc_gpio.h ****  */
 307:C:/Users/Mafish/Documents/GitHub/MAB_Controller/Libraries/XMCLib/inc\xmc_gpio.h **** 
 308:C:/Users/Mafish/Documents/GitHub/MAB_Controller/Libraries/XMCLib/inc\xmc_gpio.h **** __STATIC_INLINE void XMC_GPIO_ToggleOutput(XMC_GPIO_PORT_t *const port, const uint8_t pin)
 309:C:/Users/Mafish/Documents/GitHub/MAB_Controller/Libraries/XMCLib/inc\xmc_gpio.h **** {
 121              	 .loc 1 309 0
 122              	 .cfi_startproc
 123              	 
 124              	 
 125              	 
 126 0000 80B4     	 push {r7}
 127              	.LCFI12:
 128              	 .cfi_def_cfa_offset 4
 129              	 .cfi_offset 7,-4
 130 0002 83B0     	 sub sp,sp,#12
 131              	.LCFI13:
 132              	 .cfi_def_cfa_offset 16
 133 0004 00AF     	 add r7,sp,#0
 134              	.LCFI14:
 135              	 .cfi_def_cfa_register 7
 136 0006 7860     	 str r0,[r7,#4]
 137 0008 0B46     	 mov r3,r1
 138 000a FB70     	 strb r3,[r7,#3]
 310:C:/Users/Mafish/Documents/GitHub/MAB_Controller/Libraries/XMCLib/inc\xmc_gpio.h ****   XMC_ASSERT("XMC_GPIO_ToggleOutput: Invalid port", XMC_GPIO_CHECK_OUTPUT_PORT(port));
 311:C:/Users/Mafish/Documents/GitHub/MAB_Controller/Libraries/XMCLib/inc\xmc_gpio.h **** 
 312:C:/Users/Mafish/Documents/GitHub/MAB_Controller/Libraries/XMCLib/inc\xmc_gpio.h ****   port->OMR = 0x10001U << pin;
 139              	 .loc 1 312 0
 140 000c FB78     	 ldrb r3,[r7,#3]
 141 000e 4FF00112 	 mov r2,#65537
 142 0012 9A40     	 lsls r2,r2,r3
 143 0014 7B68     	 ldr r3,[r7,#4]
 144 0016 5A60     	 str r2,[r3,#4]
 313:C:/Users/Mafish/Documents/GitHub/MAB_Controller/Libraries/XMCLib/inc\xmc_gpio.h **** }
 145              	 .loc 1 313 0
 146 0018 0C37     	 adds r7,r7,#12
 147              	.LCFI15:
 148              	 .cfi_def_cfa_offset 4
 149 001a BD46     	 mov sp,r7
 150              	.LCFI16:
 151              	 .cfi_def_cfa_register 13
 152              	 
 153 001c 5DF8047B 	 ldr r7,[sp],#4
 154              	.LCFI17:
 155              	 .cfi_restore 7
 156              	 .cfi_def_cfa_offset 0
 157 0020 7047     	 bx lr
 158              	 .cfi_endproc
 159              	.LFE166:
 161 0022 00BF     	 .section .text.UART_IsTxBusy,"ax",%progbits
 162              	 .align 2
 163              	 .thumb
 164              	 .thumb_func
 166              	UART_IsTxBusy:
 167              	.LFB267:
 168              	 .file 2 "C:/Users/Mafish/Documents/GitHub/MAB_Controller/Dave/Generated/UART/uart.h"
   1:C:/Users/Mafish/Documents/GitHub/MAB_Controller/Dave/Generated/UART\uart.h **** /**
   2:C:/Users/Mafish/Documents/GitHub/MAB_Controller/Dave/Generated/UART\uart.h ****  * @file uart.h
   3:C:/Users/Mafish/Documents/GitHub/MAB_Controller/Dave/Generated/UART\uart.h ****  * @date 2015-12-17
   4:C:/Users/Mafish/Documents/GitHub/MAB_Controller/Dave/Generated/UART\uart.h ****  *
   5:C:/Users/Mafish/Documents/GitHub/MAB_Controller/Dave/Generated/UART\uart.h ****  * NOTE:
   6:C:/Users/Mafish/Documents/GitHub/MAB_Controller/Dave/Generated/UART\uart.h ****  * This file is generated by DAVE. Any manual modification done to this file will be lost when the 
   7:C:/Users/Mafish/Documents/GitHub/MAB_Controller/Dave/Generated/UART\uart.h ****  *
   8:C:/Users/Mafish/Documents/GitHub/MAB_Controller/Dave/Generated/UART\uart.h ****  * @cond
   9:C:/Users/Mafish/Documents/GitHub/MAB_Controller/Dave/Generated/UART\uart.h ****  **************************************************************************************************
  10:C:/Users/Mafish/Documents/GitHub/MAB_Controller/Dave/Generated/UART\uart.h ****  * UART v4.1.10 - Configures a USIC channel to perform transmit & receive operations using UART pro
  11:C:/Users/Mafish/Documents/GitHub/MAB_Controller/Dave/Generated/UART\uart.h ****  *
  12:C:/Users/Mafish/Documents/GitHub/MAB_Controller/Dave/Generated/UART\uart.h ****  * Copyright (c) 2015-2016, Infineon Technologies AG
  13:C:/Users/Mafish/Documents/GitHub/MAB_Controller/Dave/Generated/UART\uart.h ****  * All rights reserved.
  14:C:/Users/Mafish/Documents/GitHub/MAB_Controller/Dave/Generated/UART\uart.h ****  *
  15:C:/Users/Mafish/Documents/GitHub/MAB_Controller/Dave/Generated/UART\uart.h ****  * Redistribution and use in source and binary forms, with or without modification,are permitted pr
  16:C:/Users/Mafish/Documents/GitHub/MAB_Controller/Dave/Generated/UART\uart.h ****  * following conditions are met:
  17:C:/Users/Mafish/Documents/GitHub/MAB_Controller/Dave/Generated/UART\uart.h ****  *
  18:C:/Users/Mafish/Documents/GitHub/MAB_Controller/Dave/Generated/UART\uart.h ****  *   Redistributions of source code must retain the above copyright notice, this list of conditions
  19:C:/Users/Mafish/Documents/GitHub/MAB_Controller/Dave/Generated/UART\uart.h ****  *   disclaimer.
  20:C:/Users/Mafish/Documents/GitHub/MAB_Controller/Dave/Generated/UART\uart.h ****  *
  21:C:/Users/Mafish/Documents/GitHub/MAB_Controller/Dave/Generated/UART\uart.h ****  *   Redistributions in binary form must reproduce the above copyright notice, this list of conditi
  22:C:/Users/Mafish/Documents/GitHub/MAB_Controller/Dave/Generated/UART\uart.h ****  *   disclaimer in the documentation and/or other materials provided with the distribution.
  23:C:/Users/Mafish/Documents/GitHub/MAB_Controller/Dave/Generated/UART\uart.h ****  *
  24:C:/Users/Mafish/Documents/GitHub/MAB_Controller/Dave/Generated/UART\uart.h ****  *   Neither the name of the copyright holders nor the names of its contributors may be used to end
  25:C:/Users/Mafish/Documents/GitHub/MAB_Controller/Dave/Generated/UART\uart.h ****  *   products derived from this software without specific prior written permission.
  26:C:/Users/Mafish/Documents/GitHub/MAB_Controller/Dave/Generated/UART\uart.h ****  *
  27:C:/Users/Mafish/Documents/GitHub/MAB_Controller/Dave/Generated/UART\uart.h ****  * THIS SOFTWARE IS PROVIDED BY THE COPYRIGHT HOLDERS AND CONTRIBUTORS "AS IS" AND ANY EXPRESS OR I
  28:C:/Users/Mafish/Documents/GitHub/MAB_Controller/Dave/Generated/UART\uart.h ****  * INCLUDING, BUT NOT LIMITED TO, THE IMPLIED WARRANTIES OF MERCHANTABILITY AND FITNESS FOR A PARTI
  29:C:/Users/Mafish/Documents/GitHub/MAB_Controller/Dave/Generated/UART\uart.h ****  * DISCLAIMED. IN NO EVENT SHALL THE COPYRIGHT HOLDER OR CONTRIBUTORS BE LIABLE  FOR ANY DIRECT, IN
  30:C:/Users/Mafish/Documents/GitHub/MAB_Controller/Dave/Generated/UART\uart.h ****  * SPECIAL, EXEMPLARY, OR CONSEQUENTIAL DAMAGES (INCLUDING, BUT NOT LIMITED TO, PROCUREMENT OF SUBS
  31:C:/Users/Mafish/Documents/GitHub/MAB_Controller/Dave/Generated/UART\uart.h ****  * SERVICES; LOSS OF USE, DATA, OR PROFITS; OR BUSINESS INTERRUPTION) HOWEVER CAUSED AND ON ANY THE
  32:C:/Users/Mafish/Documents/GitHub/MAB_Controller/Dave/Generated/UART\uart.h ****  * WHETHER IN CONTRACT, STRICT LIABILITY,OR TORT (INCLUDING NEGLIGENCE OR OTHERWISE) ARISING IN ANY
  33:C:/Users/Mafish/Documents/GitHub/MAB_Controller/Dave/Generated/UART\uart.h ****  * USE OF THIS SOFTWARE, EVEN IF ADVISED OF THE POSSIBILITY OF SUCH DAMAGE.
  34:C:/Users/Mafish/Documents/GitHub/MAB_Controller/Dave/Generated/UART\uart.h ****  *
  35:C:/Users/Mafish/Documents/GitHub/MAB_Controller/Dave/Generated/UART\uart.h ****  * To improve the quality of the software, users are encouraged to share modifications, enhancement
  36:C:/Users/Mafish/Documents/GitHub/MAB_Controller/Dave/Generated/UART\uart.h ****  * with Infineon Technologies AG (dave@infineon.com).
  37:C:/Users/Mafish/Documents/GitHub/MAB_Controller/Dave/Generated/UART\uart.h ****  **************************************************************************************************
  38:C:/Users/Mafish/Documents/GitHub/MAB_Controller/Dave/Generated/UART\uart.h ****  *
  39:C:/Users/Mafish/Documents/GitHub/MAB_Controller/Dave/Generated/UART\uart.h ****  * Change History
  40:C:/Users/Mafish/Documents/GitHub/MAB_Controller/Dave/Generated/UART\uart.h ****  * --------------
  41:C:/Users/Mafish/Documents/GitHub/MAB_Controller/Dave/Generated/UART\uart.h ****  *
  42:C:/Users/Mafish/Documents/GitHub/MAB_Controller/Dave/Generated/UART\uart.h ****  * 2015-02-16:
  43:C:/Users/Mafish/Documents/GitHub/MAB_Controller/Dave/Generated/UART\uart.h ****  *     - Initial version for DAVEv4
  44:C:/Users/Mafish/Documents/GitHub/MAB_Controller/Dave/Generated/UART\uart.h ****  *
  45:C:/Users/Mafish/Documents/GitHub/MAB_Controller/Dave/Generated/UART\uart.h ****  * 2015-06-20:
  46:C:/Users/Mafish/Documents/GitHub/MAB_Controller/Dave/Generated/UART\uart.h ****  *     - Changed the abort API name from UART_Abort_Receive to UART_AbortReceive and added return t
  47:C:/Users/Mafish/Documents/GitHub/MAB_Controller/Dave/Generated/UART\uart.h ****  *
  48:C:/Users/Mafish/Documents/GitHub/MAB_Controller/Dave/Generated/UART\uart.h ****  * 2015-07-01:
  49:C:/Users/Mafish/Documents/GitHub/MAB_Controller/Dave/Generated/UART\uart.h ****  *     - Changed structure name from UART_DYNAMIC_t to UART_RUNTIME_t
  50:C:/Users/Mafish/Documents/GitHub/MAB_Controller/Dave/Generated/UART\uart.h ****  *
  51:C:/Users/Mafish/Documents/GitHub/MAB_Controller/Dave/Generated/UART\uart.h ****  * 2015-07-09:
  52:C:/Users/Mafish/Documents/GitHub/MAB_Controller/Dave/Generated/UART\uart.h ****  *     - Renamed UART_GetProtocolStatus as UART_GetFlagStatus and UART_ClearProtocolStatus as UART_
  53:C:/Users/Mafish/Documents/GitHub/MAB_Controller/Dave/Generated/UART\uart.h ****  *     - Removed APIs UART_GetTXFIFOStatus, UART_GetRXFIFOStatus, UART_ClearTXFIFOStatus,
  54:C:/Users/Mafish/Documents/GitHub/MAB_Controller/Dave/Generated/UART\uart.h ****  *       UART_ClearRXFIFOStatus
  55:C:/Users/Mafish/Documents/GitHub/MAB_Controller/Dave/Generated/UART\uart.h ****  *
  56:C:/Users/Mafish/Documents/GitHub/MAB_Controller/Dave/Generated/UART\uart.h ****  * 2015-07-14:
  57:C:/Users/Mafish/Documents/GitHub/MAB_Controller/Dave/Generated/UART\uart.h ****  *     - Added support for DMA and Direct mode
  58:C:/Users/Mafish/Documents/GitHub/MAB_Controller/Dave/Generated/UART\uart.h ****  *
  59:C:/Users/Mafish/Documents/GitHub/MAB_Controller/Dave/Generated/UART\uart.h ****  * @endcond
  60:C:/Users/Mafish/Documents/GitHub/MAB_Controller/Dave/Generated/UART\uart.h ****  *
  61:C:/Users/Mafish/Documents/GitHub/MAB_Controller/Dave/Generated/UART\uart.h ****  */
  62:C:/Users/Mafish/Documents/GitHub/MAB_Controller/Dave/Generated/UART\uart.h **** 
  63:C:/Users/Mafish/Documents/GitHub/MAB_Controller/Dave/Generated/UART\uart.h **** /**************************************************************************************************
  64:C:/Users/Mafish/Documents/GitHub/MAB_Controller/Dave/Generated/UART\uart.h ****  * HEADER FILES
  65:C:/Users/Mafish/Documents/GitHub/MAB_Controller/Dave/Generated/UART\uart.h ****  **************************************************************************************************
  66:C:/Users/Mafish/Documents/GitHub/MAB_Controller/Dave/Generated/UART\uart.h **** #ifndef UART_H
  67:C:/Users/Mafish/Documents/GitHub/MAB_Controller/Dave/Generated/UART\uart.h **** #define UART_H
  68:C:/Users/Mafish/Documents/GitHub/MAB_Controller/Dave/Generated/UART\uart.h **** 
  69:C:/Users/Mafish/Documents/GitHub/MAB_Controller/Dave/Generated/UART\uart.h **** #include <xmc_scu.h>
  70:C:/Users/Mafish/Documents/GitHub/MAB_Controller/Dave/Generated/UART\uart.h **** #include <xmc_gpio.h>
  71:C:/Users/Mafish/Documents/GitHub/MAB_Controller/Dave/Generated/UART\uart.h **** #include <xmc_uart.h>
  72:C:/Users/Mafish/Documents/GitHub/MAB_Controller/Dave/Generated/UART\uart.h **** 
  73:C:/Users/Mafish/Documents/GitHub/MAB_Controller/Dave/Generated/UART\uart.h **** #if (!((XMC_LIB_MAJOR_VERSION == 2U) && \
  74:C:/Users/Mafish/Documents/GitHub/MAB_Controller/Dave/Generated/UART\uart.h ****        (XMC_LIB_MINOR_VERSION >= 1U) && \
  75:C:/Users/Mafish/Documents/GitHub/MAB_Controller/Dave/Generated/UART\uart.h ****        (XMC_LIB_PATCH_VERSION >= 10U)))
  76:C:/Users/Mafish/Documents/GitHub/MAB_Controller/Dave/Generated/UART\uart.h **** #error "UART requires XMC Peripheral Library v2.1.10 or higher"
  77:C:/Users/Mafish/Documents/GitHub/MAB_Controller/Dave/Generated/UART\uart.h **** #endif
  78:C:/Users/Mafish/Documents/GitHub/MAB_Controller/Dave/Generated/UART\uart.h **** 
  79:C:/Users/Mafish/Documents/GitHub/MAB_Controller/Dave/Generated/UART\uart.h **** #include <DAVE_common.h>
  80:C:/Users/Mafish/Documents/GitHub/MAB_Controller/Dave/Generated/UART\uart.h **** #include "uart_conf.h"
  81:C:/Users/Mafish/Documents/GitHub/MAB_Controller/Dave/Generated/UART\uart.h **** #if ((defined UART_TX_DMA_USED) || (defined UART_RX_DMA_USED))
  82:C:/Users/Mafish/Documents/GitHub/MAB_Controller/Dave/Generated/UART\uart.h **** #include "../GLOBAL_DMA/global_dma.h"
  83:C:/Users/Mafish/Documents/GitHub/MAB_Controller/Dave/Generated/UART\uart.h **** #endif
  84:C:/Users/Mafish/Documents/GitHub/MAB_Controller/Dave/Generated/UART\uart.h **** 
  85:C:/Users/Mafish/Documents/GitHub/MAB_Controller/Dave/Generated/UART\uart.h **** /**************************************************************************************************
  86:C:/Users/Mafish/Documents/GitHub/MAB_Controller/Dave/Generated/UART\uart.h ****  * MACROS
  87:C:/Users/Mafish/Documents/GitHub/MAB_Controller/Dave/Generated/UART\uart.h ****  **************************************************************************************************
  88:C:/Users/Mafish/Documents/GitHub/MAB_Controller/Dave/Generated/UART\uart.h **** /*
  89:C:/Users/Mafish/Documents/GitHub/MAB_Controller/Dave/Generated/UART\uart.h ****  * @brief Represents the maximum data size for DMA transaction*/
  90:C:/Users/Mafish/Documents/GitHub/MAB_Controller/Dave/Generated/UART\uart.h **** #define UART_DMA_MAXCOUNT (4095U)
  91:C:/Users/Mafish/Documents/GitHub/MAB_Controller/Dave/Generated/UART\uart.h **** 
  92:C:/Users/Mafish/Documents/GitHub/MAB_Controller/Dave/Generated/UART\uart.h **** /**************************************************************************************************
  93:C:/Users/Mafish/Documents/GitHub/MAB_Controller/Dave/Generated/UART\uart.h ****  * ENUMS
  94:C:/Users/Mafish/Documents/GitHub/MAB_Controller/Dave/Generated/UART\uart.h ****  **************************************************************************************************
  95:C:/Users/Mafish/Documents/GitHub/MAB_Controller/Dave/Generated/UART\uart.h **** /**
  96:C:/Users/Mafish/Documents/GitHub/MAB_Controller/Dave/Generated/UART\uart.h ****  * @ingroup UART_enumerations
  97:C:/Users/Mafish/Documents/GitHub/MAB_Controller/Dave/Generated/UART\uart.h ****  * @{
  98:C:/Users/Mafish/Documents/GitHub/MAB_Controller/Dave/Generated/UART\uart.h ****  */
  99:C:/Users/Mafish/Documents/GitHub/MAB_Controller/Dave/Generated/UART\uart.h **** 
 100:C:/Users/Mafish/Documents/GitHub/MAB_Controller/Dave/Generated/UART\uart.h **** /**
 101:C:/Users/Mafish/Documents/GitHub/MAB_Controller/Dave/Generated/UART\uart.h ****  * @brief Enum to describe the possible status values, returned
 102:C:/Users/Mafish/Documents/GitHub/MAB_Controller/Dave/Generated/UART\uart.h ****  *  by UART APIs.
 103:C:/Users/Mafish/Documents/GitHub/MAB_Controller/Dave/Generated/UART\uart.h ****  */
 104:C:/Users/Mafish/Documents/GitHub/MAB_Controller/Dave/Generated/UART\uart.h **** typedef enum UART_STATUS
 105:C:/Users/Mafish/Documents/GitHub/MAB_Controller/Dave/Generated/UART\uart.h **** {
 106:C:/Users/Mafish/Documents/GitHub/MAB_Controller/Dave/Generated/UART\uart.h ****   UART_STATUS_SUCCESS,        /**< Indicates App initialization state successful */
 107:C:/Users/Mafish/Documents/GitHub/MAB_Controller/Dave/Generated/UART\uart.h **** 
 108:C:/Users/Mafish/Documents/GitHub/MAB_Controller/Dave/Generated/UART\uart.h ****   UART_STATUS_FAILURE,        /**< Unknown error */
 109:C:/Users/Mafish/Documents/GitHub/MAB_Controller/Dave/Generated/UART\uart.h **** 
 110:C:/Users/Mafish/Documents/GitHub/MAB_Controller/Dave/Generated/UART\uart.h ****   UART_STATUS_BUSY,           /**< UART Busy */
 111:C:/Users/Mafish/Documents/GitHub/MAB_Controller/Dave/Generated/UART\uart.h **** 
 112:C:/Users/Mafish/Documents/GitHub/MAB_Controller/Dave/Generated/UART\uart.h ****   UART_STATUS_BUFFER_INVALID, /**< Buffer provided or the buffer size is invalid*/
 113:C:/Users/Mafish/Documents/GitHub/MAB_Controller/Dave/Generated/UART\uart.h **** 
 114:C:/Users/Mafish/Documents/GitHub/MAB_Controller/Dave/Generated/UART\uart.h ****   UART_STATUS_MODE_MISMATCH   /**< API invoked by a handle configured with different mode.
 115:C:/Users/Mafish/Documents/GitHub/MAB_Controller/Dave/Generated/UART\uart.h ****                                    e.g, If UART_StartTransmitDMA is invoked for an instance
 116:C:/Users/Mafish/Documents/GitHub/MAB_Controller/Dave/Generated/UART\uart.h ****                                    which has transmit mode configured as "Interrupt", will
 117:C:/Users/Mafish/Documents/GitHub/MAB_Controller/Dave/Generated/UART\uart.h ****                                    return this status.*/
 118:C:/Users/Mafish/Documents/GitHub/MAB_Controller/Dave/Generated/UART\uart.h **** 
 119:C:/Users/Mafish/Documents/GitHub/MAB_Controller/Dave/Generated/UART\uart.h **** } UART_STATUS_t;
 120:C:/Users/Mafish/Documents/GitHub/MAB_Controller/Dave/Generated/UART\uart.h **** 
 121:C:/Users/Mafish/Documents/GitHub/MAB_Controller/Dave/Generated/UART\uart.h **** /**
 122:C:/Users/Mafish/Documents/GitHub/MAB_Controller/Dave/Generated/UART\uart.h ****  * @brief Enum used to describe the UART Mode of operation
 123:C:/Users/Mafish/Documents/GitHub/MAB_Controller/Dave/Generated/UART\uart.h ****  */
 124:C:/Users/Mafish/Documents/GitHub/MAB_Controller/Dave/Generated/UART\uart.h **** typedef enum UART_MODE
 125:C:/Users/Mafish/Documents/GitHub/MAB_Controller/Dave/Generated/UART\uart.h **** {
 126:C:/Users/Mafish/Documents/GitHub/MAB_Controller/Dave/Generated/UART\uart.h ****   UART_MODE_FULLDUPLEX, /**< Full Duplex mode selected */
 127:C:/Users/Mafish/Documents/GitHub/MAB_Controller/Dave/Generated/UART\uart.h ****   UART_MODE_HALFDUPLEX, /**< Half Duplex mode selected */
 128:C:/Users/Mafish/Documents/GitHub/MAB_Controller/Dave/Generated/UART\uart.h ****   UART_MODE_LOOPBACK    /**< LoopBack mode selected */
 129:C:/Users/Mafish/Documents/GitHub/MAB_Controller/Dave/Generated/UART\uart.h **** } UART_MODE_t;
 130:C:/Users/Mafish/Documents/GitHub/MAB_Controller/Dave/Generated/UART\uart.h **** 
 131:C:/Users/Mafish/Documents/GitHub/MAB_Controller/Dave/Generated/UART\uart.h **** /**
 132:C:/Users/Mafish/Documents/GitHub/MAB_Controller/Dave/Generated/UART\uart.h ****  * @brief Enum used to identify UART protocol event callback function
 133:C:/Users/Mafish/Documents/GitHub/MAB_Controller/Dave/Generated/UART\uart.h ****  */
 134:C:/Users/Mafish/Documents/GitHub/MAB_Controller/Dave/Generated/UART\uart.h **** typedef enum UART_EVENT
 135:C:/Users/Mafish/Documents/GitHub/MAB_Controller/Dave/Generated/UART\uart.h **** {
 136:C:/Users/Mafish/Documents/GitHub/MAB_Controller/Dave/Generated/UART\uart.h ****   UART_EVENT_SYNC_BRK,    /**< Synchronization break detected event */
 137:C:/Users/Mafish/Documents/GitHub/MAB_Controller/Dave/Generated/UART\uart.h ****   UART_EVENT_RX_NOISE,    /**< Receiver noise detected event */
 138:C:/Users/Mafish/Documents/GitHub/MAB_Controller/Dave/Generated/UART\uart.h ****   UART_EVENT_FORMAT_ERR0, /**< Frame format error at stop bit 0 event */
 139:C:/Users/Mafish/Documents/GitHub/MAB_Controller/Dave/Generated/UART\uart.h ****   UART_EVENT_FORMAT_ERR1, /**< Frame format error at stop bit 1 event */
 140:C:/Users/Mafish/Documents/GitHub/MAB_Controller/Dave/Generated/UART\uart.h ****   UART_EVENT_COLLISION,   /**< Data collision detected in half duplex mode event */
 141:C:/Users/Mafish/Documents/GitHub/MAB_Controller/Dave/Generated/UART\uart.h ****   UART_EVENT_MAX          /**< Indicates number of UART events supported*/
 142:C:/Users/Mafish/Documents/GitHub/MAB_Controller/Dave/Generated/UART\uart.h **** } UART_EVENT_t;
 143:C:/Users/Mafish/Documents/GitHub/MAB_Controller/Dave/Generated/UART\uart.h **** 
 144:C:/Users/Mafish/Documents/GitHub/MAB_Controller/Dave/Generated/UART\uart.h **** /**
 145:C:/Users/Mafish/Documents/GitHub/MAB_Controller/Dave/Generated/UART\uart.h ****  * @brief Enum used to identify the transfer type used for either transmit or receive function.
 146:C:/Users/Mafish/Documents/GitHub/MAB_Controller/Dave/Generated/UART\uart.h ****  */
 147:C:/Users/Mafish/Documents/GitHub/MAB_Controller/Dave/Generated/UART\uart.h **** typedef enum UART_TRANSFER_MODE
 148:C:/Users/Mafish/Documents/GitHub/MAB_Controller/Dave/Generated/UART\uart.h **** {
 149:C:/Users/Mafish/Documents/GitHub/MAB_Controller/Dave/Generated/UART\uart.h ****   UART_TRANSFER_MODE_INTERRUPT,  /**< Implement data transmit or receive using interrupts */
 150:C:/Users/Mafish/Documents/GitHub/MAB_Controller/Dave/Generated/UART\uart.h ****   UART_TRANSFER_MODE_DMA,        /**< Implement data transmit or receive using DMA */
 151:C:/Users/Mafish/Documents/GitHub/MAB_Controller/Dave/Generated/UART\uart.h ****   UART_TRANSFER_MODE_DIRECT      /**< This configuration exposes signals for external APP connectio
 152:C:/Users/Mafish/Documents/GitHub/MAB_Controller/Dave/Generated/UART\uart.h **** }UART_TRANSFER_MODE_t;
 153:C:/Users/Mafish/Documents/GitHub/MAB_Controller/Dave/Generated/UART\uart.h **** 
 154:C:/Users/Mafish/Documents/GitHub/MAB_Controller/Dave/Generated/UART\uart.h **** /**
 155:C:/Users/Mafish/Documents/GitHub/MAB_Controller/Dave/Generated/UART\uart.h ****  * @}
 156:C:/Users/Mafish/Documents/GitHub/MAB_Controller/Dave/Generated/UART\uart.h ****  */
 157:C:/Users/Mafish/Documents/GitHub/MAB_Controller/Dave/Generated/UART\uart.h **** 
 158:C:/Users/Mafish/Documents/GitHub/MAB_Controller/Dave/Generated/UART\uart.h **** /**************************************************************************************************
 159:C:/Users/Mafish/Documents/GitHub/MAB_Controller/Dave/Generated/UART\uart.h ****  * DATA STRUCTURES
 160:C:/Users/Mafish/Documents/GitHub/MAB_Controller/Dave/Generated/UART\uart.h ****  **************************************************************************************************
 161:C:/Users/Mafish/Documents/GitHub/MAB_Controller/Dave/Generated/UART\uart.h **** /**
 162:C:/Users/Mafish/Documents/GitHub/MAB_Controller/Dave/Generated/UART\uart.h ****  * @brief Function pointer used for callback function
 163:C:/Users/Mafish/Documents/GitHub/MAB_Controller/Dave/Generated/UART\uart.h ****  */
 164:C:/Users/Mafish/Documents/GitHub/MAB_Controller/Dave/Generated/UART\uart.h **** typedef void (*UART_cbhandler)(void);
 165:C:/Users/Mafish/Documents/GitHub/MAB_Controller/Dave/Generated/UART\uart.h **** /**
 166:C:/Users/Mafish/Documents/GitHub/MAB_Controller/Dave/Generated/UART\uart.h ****  * @brief Function pointer used for initialization function
 167:C:/Users/Mafish/Documents/GitHub/MAB_Controller/Dave/Generated/UART\uart.h ****  */
 168:C:/Users/Mafish/Documents/GitHub/MAB_Controller/Dave/Generated/UART\uart.h **** typedef UART_STATUS_t (*UART_init_handler)(void);
 169:C:/Users/Mafish/Documents/GitHub/MAB_Controller/Dave/Generated/UART\uart.h **** /**
 170:C:/Users/Mafish/Documents/GitHub/MAB_Controller/Dave/Generated/UART\uart.h ****  * @ingroup UART_datastructures
 171:C:/Users/Mafish/Documents/GitHub/MAB_Controller/Dave/Generated/UART\uart.h ****  * @{
 172:C:/Users/Mafish/Documents/GitHub/MAB_Controller/Dave/Generated/UART\uart.h ****  */
 173:C:/Users/Mafish/Documents/GitHub/MAB_Controller/Dave/Generated/UART\uart.h **** 
 174:C:/Users/Mafish/Documents/GitHub/MAB_Controller/Dave/Generated/UART\uart.h **** /**
 175:C:/Users/Mafish/Documents/GitHub/MAB_Controller/Dave/Generated/UART\uart.h ****  * @brief Wrapper typedefinition for XMC_UART_PROTOCOL_STATUS_t.
 176:C:/Users/Mafish/Documents/GitHub/MAB_Controller/Dave/Generated/UART\uart.h ****  */
 177:C:/Users/Mafish/Documents/GitHub/MAB_Controller/Dave/Generated/UART\uart.h **** typedef XMC_UART_CH_STATUS_FLAG_t UART_PROTOCOL_STATUS_t;
 178:C:/Users/Mafish/Documents/GitHub/MAB_Controller/Dave/Generated/UART\uart.h **** 
 179:C:/Users/Mafish/Documents/GitHub/MAB_Controller/Dave/Generated/UART\uart.h **** /**
 180:C:/Users/Mafish/Documents/GitHub/MAB_Controller/Dave/Generated/UART\uart.h ****  * @brief Structure for transmit pin configuration.
 181:C:/Users/Mafish/Documents/GitHub/MAB_Controller/Dave/Generated/UART\uart.h ****  */
 182:C:/Users/Mafish/Documents/GitHub/MAB_Controller/Dave/Generated/UART\uart.h **** typedef struct UART_TX_CONFIG
 183:C:/Users/Mafish/Documents/GitHub/MAB_Controller/Dave/Generated/UART\uart.h **** {
 184:C:/Users/Mafish/Documents/GitHub/MAB_Controller/Dave/Generated/UART\uart.h ****   XMC_GPIO_PORT_t *const port;            /**< Pointer to the GPIO port base address */
 185:C:/Users/Mafish/Documents/GitHub/MAB_Controller/Dave/Generated/UART\uart.h ****   const uint8_t pin;                      /**< Pin number in the port*/
 186:C:/Users/Mafish/Documents/GitHub/MAB_Controller/Dave/Generated/UART\uart.h ****   const XMC_GPIO_CONFIG_t *const config;  /**< Pin configuration structure */
 187:C:/Users/Mafish/Documents/GitHub/MAB_Controller/Dave/Generated/UART\uart.h **** } UART_TX_CONFIG_t;
 188:C:/Users/Mafish/Documents/GitHub/MAB_Controller/Dave/Generated/UART\uart.h **** 
 189:C:/Users/Mafish/Documents/GitHub/MAB_Controller/Dave/Generated/UART\uart.h **** #if (defined(UART_TX_DMA_USED) || defined(UART_RX_DMA_USED))
 190:C:/Users/Mafish/Documents/GitHub/MAB_Controller/Dave/Generated/UART\uart.h **** /**
 191:C:/Users/Mafish/Documents/GitHub/MAB_Controller/Dave/Generated/UART\uart.h ****  * @brief Structure for DMA configuration.
 192:C:/Users/Mafish/Documents/GitHub/MAB_Controller/Dave/Generated/UART\uart.h ****  */
 193:C:/Users/Mafish/Documents/GitHub/MAB_Controller/Dave/Generated/UART\uart.h **** typedef struct UART_DMA_CONFIG
 194:C:/Users/Mafish/Documents/GitHub/MAB_Controller/Dave/Generated/UART\uart.h **** {
 195:C:/Users/Mafish/Documents/GitHub/MAB_Controller/Dave/Generated/UART\uart.h ****   const XMC_DMA_CH_CONFIG_t * dma_ch_config;   /**< Pointer to the DMA channel configuration.*/
 196:C:/Users/Mafish/Documents/GitHub/MAB_Controller/Dave/Generated/UART\uart.h ****   uint8_t dma_channel;                         /**< DMA channel number */
 197:C:/Users/Mafish/Documents/GitHub/MAB_Controller/Dave/Generated/UART\uart.h **** }UART_DMA_CONFIG_t;
 198:C:/Users/Mafish/Documents/GitHub/MAB_Controller/Dave/Generated/UART\uart.h **** #endif
 199:C:/Users/Mafish/Documents/GitHub/MAB_Controller/Dave/Generated/UART\uart.h **** 
 200:C:/Users/Mafish/Documents/GitHub/MAB_Controller/Dave/Generated/UART\uart.h **** /**
 201:C:/Users/Mafish/Documents/GitHub/MAB_Controller/Dave/Generated/UART\uart.h ****  * @brief Structure for holding the configuration parameters of UART channel.
 202:C:/Users/Mafish/Documents/GitHub/MAB_Controller/Dave/Generated/UART\uart.h ****  */
 203:C:/Users/Mafish/Documents/GitHub/MAB_Controller/Dave/Generated/UART\uart.h **** typedef struct UART_CONFIG
 204:C:/Users/Mafish/Documents/GitHub/MAB_Controller/Dave/Generated/UART\uart.h **** {
 205:C:/Users/Mafish/Documents/GitHub/MAB_Controller/Dave/Generated/UART\uart.h ****   const XMC_UART_CH_CONFIG_t * const channel_config;   /**< Basic UART configuration from the GUI w
 206:C:/Users/Mafish/Documents/GitHub/MAB_Controller/Dave/Generated/UART\uart.h ****                                                             frame length, stop bits and parity */
 207:C:/Users/Mafish/Documents/GitHub/MAB_Controller/Dave/Generated/UART\uart.h **** #if (defined UART_TX_DMA_USED) || (defined UART_RX_DMA_USED)
 208:C:/Users/Mafish/Documents/GitHub/MAB_Controller/Dave/Generated/UART\uart.h ****   GLOBAL_DMA_t * global_dma;                           /**< Global DMA handle */
 209:C:/Users/Mafish/Documents/GitHub/MAB_Controller/Dave/Generated/UART\uart.h **** #endif
 210:C:/Users/Mafish/Documents/GitHub/MAB_Controller/Dave/Generated/UART\uart.h **** #ifdef UART_TX_DMA_USED
 211:C:/Users/Mafish/Documents/GitHub/MAB_Controller/Dave/Generated/UART\uart.h ****   const UART_DMA_CONFIG_t * const transmit_dma_config; /**< Pointer to the DMA channel configuratio
 212:C:/Users/Mafish/Documents/GitHub/MAB_Controller/Dave/Generated/UART\uart.h **** #endif
 213:C:/Users/Mafish/Documents/GitHub/MAB_Controller/Dave/Generated/UART\uart.h **** #ifdef UART_RX_DMA_USED
 214:C:/Users/Mafish/Documents/GitHub/MAB_Controller/Dave/Generated/UART\uart.h ****   const UART_DMA_CONFIG_t * const receive_dma_config;  /**< Pointer to the DMA channel configuratio
 215:C:/Users/Mafish/Documents/GitHub/MAB_Controller/Dave/Generated/UART\uart.h **** #endif
 216:C:/Users/Mafish/Documents/GitHub/MAB_Controller/Dave/Generated/UART\uart.h ****   UART_init_handler fptr_uart_config;                  /**< Function pointer to configure the MUX v
 217:C:/Users/Mafish/Documents/GitHub/MAB_Controller/Dave/Generated/UART\uart.h **** #ifdef UART_TX_INTERRUPT_USED
 218:C:/Users/Mafish/Documents/GitHub/MAB_Controller/Dave/Generated/UART\uart.h ****   UART_cbhandler tx_cbhandler;                         /**< Function pointer to hold the callback f
 219:C:/Users/Mafish/Documents/GitHub/MAB_Controller/Dave/Generated/UART\uart.h ****                                                             called when the transmission is complet
 220:C:/Users/Mafish/Documents/GitHub/MAB_Controller/Dave/Generated/UART\uart.h **** #endif
 221:C:/Users/Mafish/Documents/GitHub/MAB_Controller/Dave/Generated/UART\uart.h **** #ifdef UART_RX_INTERRUPT_USED
 222:C:/Users/Mafish/Documents/GitHub/MAB_Controller/Dave/Generated/UART\uart.h ****   UART_cbhandler rx_cbhandler;                         /**< Function pointer to hold the callback f
 223:C:/Users/Mafish/Documents/GitHub/MAB_Controller/Dave/Generated/UART\uart.h ****                                                             called when the reception is complete *
 224:C:/Users/Mafish/Documents/GitHub/MAB_Controller/Dave/Generated/UART\uart.h **** #endif
 225:C:/Users/Mafish/Documents/GitHub/MAB_Controller/Dave/Generated/UART\uart.h ****   UART_cbhandler sync_error_cbhandler;                 /**< Function pointer to hold the callback f
 226:C:/Users/Mafish/Documents/GitHub/MAB_Controller/Dave/Generated/UART\uart.h ****                                                             called when synchronization break detec
 227:C:/Users/Mafish/Documents/GitHub/MAB_Controller/Dave/Generated/UART\uart.h ****   UART_cbhandler rx_noise_error_cbhandler;             /**< Function pointer to hold the callback f
 228:C:/Users/Mafish/Documents/GitHub/MAB_Controller/Dave/Generated/UART\uart.h ****                                                             called when receiver noise is detected*
 229:C:/Users/Mafish/Documents/GitHub/MAB_Controller/Dave/Generated/UART\uart.h ****   UART_cbhandler format_error_bit0_cbhandler;          /**< Function pointer to hold the callback f
 230:C:/Users/Mafish/Documents/GitHub/MAB_Controller/Dave/Generated/UART\uart.h ****                                                             called when format error with stop bit 
 231:C:/Users/Mafish/Documents/GitHub/MAB_Controller/Dave/Generated/UART\uart.h ****   UART_cbhandler format_error_bit1_cbhandler;          /**< Function pointer to hold the callback f
 232:C:/Users/Mafish/Documents/GitHub/MAB_Controller/Dave/Generated/UART\uart.h ****                                                             called when format error with stop bit 
 233:C:/Users/Mafish/Documents/GitHub/MAB_Controller/Dave/Generated/UART\uart.h ****   UART_cbhandler collision_error_cbhandler;            /**< Function pointer to hold the callback f
 234:C:/Users/Mafish/Documents/GitHub/MAB_Controller/Dave/Generated/UART\uart.h ****                                                             called when collision error is detected
 235:C:/Users/Mafish/Documents/GitHub/MAB_Controller/Dave/Generated/UART\uart.h ****   const UART_TX_CONFIG_t * tx_pin_config;              /**< Transmit pin configuration to be used d
 236:C:/Users/Mafish/Documents/GitHub/MAB_Controller/Dave/Generated/UART\uart.h ****                                                             and while changing baudrate. */
 237:C:/Users/Mafish/Documents/GitHub/MAB_Controller/Dave/Generated/UART\uart.h ****   UART_MODE_t mode;                                    /**< UART operation mode */
 238:C:/Users/Mafish/Documents/GitHub/MAB_Controller/Dave/Generated/UART\uart.h ****   UART_TRANSFER_MODE_t transmit_mode;                  /**< Mode used for transmitting data. Data c
 239:C:/Users/Mafish/Documents/GitHub/MAB_Controller/Dave/Generated/UART\uart.h ****                                                             interrupt, DMA or direct(using polling 
 240:C:/Users/Mafish/Documents/GitHub/MAB_Controller/Dave/Generated/UART\uart.h ****   UART_TRANSFER_MODE_t receive_mode;                   /**< Mode used for receiving data. Data can 
 241:C:/Users/Mafish/Documents/GitHub/MAB_Controller/Dave/Generated/UART\uart.h ****                                                             interrupt, DMA or direct(using polling 
 242:C:/Users/Mafish/Documents/GitHub/MAB_Controller/Dave/Generated/UART\uart.h ****   XMC_USIC_CH_FIFO_SIZE_t tx_fifo_size;                /**< Transmit FIFO size configuration */
 243:C:/Users/Mafish/Documents/GitHub/MAB_Controller/Dave/Generated/UART\uart.h ****   XMC_USIC_CH_FIFO_SIZE_t rx_fifo_size;                /**< Receive FIFO size configuration */
 244:C:/Users/Mafish/Documents/GitHub/MAB_Controller/Dave/Generated/UART\uart.h ****   uint8_t tx_sr;                                       /**< Service request number assigned to tran
 245:C:/Users/Mafish/Documents/GitHub/MAB_Controller/Dave/Generated/UART\uart.h **** } UART_CONFIG_t;
 246:C:/Users/Mafish/Documents/GitHub/MAB_Controller/Dave/Generated/UART\uart.h **** 
 247:C:/Users/Mafish/Documents/GitHub/MAB_Controller/Dave/Generated/UART\uart.h **** /**
 248:C:/Users/Mafish/Documents/GitHub/MAB_Controller/Dave/Generated/UART\uart.h ****  * @brief Structure to hold the dynamic variables for the UART communication.
 249:C:/Users/Mafish/Documents/GitHub/MAB_Controller/Dave/Generated/UART\uart.h ****  */
 250:C:/Users/Mafish/Documents/GitHub/MAB_Controller/Dave/Generated/UART\uart.h **** typedef struct UART_RUNTIME
 251:C:/Users/Mafish/Documents/GitHub/MAB_Controller/Dave/Generated/UART\uart.h **** {
 252:C:/Users/Mafish/Documents/GitHub/MAB_Controller/Dave/Generated/UART\uart.h ****   uint8_t * tx_data;            /**< Pointer to the transmit data buffer*/
 253:C:/Users/Mafish/Documents/GitHub/MAB_Controller/Dave/Generated/UART\uart.h ****   uint8_t * rx_data;            /**< Pointer to the receive data buffer*/
 254:C:/Users/Mafish/Documents/GitHub/MAB_Controller/Dave/Generated/UART\uart.h ****   uint32_t tx_data_count;       /**< Number of bytes of data to be transmitted*/
 255:C:/Users/Mafish/Documents/GitHub/MAB_Controller/Dave/Generated/UART\uart.h ****   uint32_t tx_data_index;       /**< Index to the byte to be transmitted next in the tx_data buffer
 256:C:/Users/Mafish/Documents/GitHub/MAB_Controller/Dave/Generated/UART\uart.h ****   uint32_t rx_data_count;       /**< Number of bytes of data to be received*/
 257:C:/Users/Mafish/Documents/GitHub/MAB_Controller/Dave/Generated/UART\uart.h ****   uint32_t rx_data_index;       /**< Indicates the number of bytes currently available in the rx_da
 258:C:/Users/Mafish/Documents/GitHub/MAB_Controller/Dave/Generated/UART\uart.h ****   volatile bool tx_busy;        /**< Status flag to indicate busy when a transmission is assigned*/
 259:C:/Users/Mafish/Documents/GitHub/MAB_Controller/Dave/Generated/UART\uart.h ****   volatile bool rx_busy;        /**< Status flag to indicate busy when a reception is assigned*/
 260:C:/Users/Mafish/Documents/GitHub/MAB_Controller/Dave/Generated/UART\uart.h **** } UART_RUNTIME_t;
 261:C:/Users/Mafish/Documents/GitHub/MAB_Controller/Dave/Generated/UART\uart.h **** 
 262:C:/Users/Mafish/Documents/GitHub/MAB_Controller/Dave/Generated/UART\uart.h **** /**
 263:C:/Users/Mafish/Documents/GitHub/MAB_Controller/Dave/Generated/UART\uart.h ****  * @brief Handler structure with pointers to dynamic and static parameters.
 264:C:/Users/Mafish/Documents/GitHub/MAB_Controller/Dave/Generated/UART\uart.h ****  */
 265:C:/Users/Mafish/Documents/GitHub/MAB_Controller/Dave/Generated/UART\uart.h **** typedef struct UART
 266:C:/Users/Mafish/Documents/GitHub/MAB_Controller/Dave/Generated/UART\uart.h **** {
 267:C:/Users/Mafish/Documents/GitHub/MAB_Controller/Dave/Generated/UART\uart.h ****   XMC_USIC_CH_t * const channel;              /**< USIC channel*/
 268:C:/Users/Mafish/Documents/GitHub/MAB_Controller/Dave/Generated/UART\uart.h ****   const UART_CONFIG_t * const config;         /**< UART configuration structure pointer*/
 269:C:/Users/Mafish/Documents/GitHub/MAB_Controller/Dave/Generated/UART\uart.h ****   UART_RUNTIME_t * const runtime;             /**< Pointer to the structure holding all variables,
 270:C:/Users/Mafish/Documents/GitHub/MAB_Controller/Dave/Generated/UART\uart.h ****                                                    that can change at runtime*/
 271:C:/Users/Mafish/Documents/GitHub/MAB_Controller/Dave/Generated/UART\uart.h **** } UART_t;
 272:C:/Users/Mafish/Documents/GitHub/MAB_Controller/Dave/Generated/UART\uart.h **** 
 273:C:/Users/Mafish/Documents/GitHub/MAB_Controller/Dave/Generated/UART\uart.h **** /**
 274:C:/Users/Mafish/Documents/GitHub/MAB_Controller/Dave/Generated/UART\uart.h ****  * @}
 275:C:/Users/Mafish/Documents/GitHub/MAB_Controller/Dave/Generated/UART\uart.h ****  */
 276:C:/Users/Mafish/Documents/GitHub/MAB_Controller/Dave/Generated/UART\uart.h **** 
 277:C:/Users/Mafish/Documents/GitHub/MAB_Controller/Dave/Generated/UART\uart.h **** /**************************************************************************************************
 278:C:/Users/Mafish/Documents/GitHub/MAB_Controller/Dave/Generated/UART\uart.h ****  * API Prototypes
 279:C:/Users/Mafish/Documents/GitHub/MAB_Controller/Dave/Generated/UART\uart.h ****  **************************************************************************************************
 280:C:/Users/Mafish/Documents/GitHub/MAB_Controller/Dave/Generated/UART\uart.h **** 
 281:C:/Users/Mafish/Documents/GitHub/MAB_Controller/Dave/Generated/UART\uart.h **** #ifdef __cplusplus
 282:C:/Users/Mafish/Documents/GitHub/MAB_Controller/Dave/Generated/UART\uart.h **** extern "C" {
 283:C:/Users/Mafish/Documents/GitHub/MAB_Controller/Dave/Generated/UART\uart.h **** #endif
 284:C:/Users/Mafish/Documents/GitHub/MAB_Controller/Dave/Generated/UART\uart.h **** /**
 285:C:/Users/Mafish/Documents/GitHub/MAB_Controller/Dave/Generated/UART\uart.h ****  * @ingroup UART_apidoc
 286:C:/Users/Mafish/Documents/GitHub/MAB_Controller/Dave/Generated/UART\uart.h ****  * @{
 287:C:/Users/Mafish/Documents/GitHub/MAB_Controller/Dave/Generated/UART\uart.h ****  */
 288:C:/Users/Mafish/Documents/GitHub/MAB_Controller/Dave/Generated/UART\uart.h **** /**
 289:C:/Users/Mafish/Documents/GitHub/MAB_Controller/Dave/Generated/UART\uart.h ****  * @brief Get the UART APP version.
 290:C:/Users/Mafish/Documents/GitHub/MAB_Controller/Dave/Generated/UART\uart.h ****  * @return DAVE_APP_VERSION_t APP version information (major, minor and patch number)
 291:C:/Users/Mafish/Documents/GitHub/MAB_Controller/Dave/Generated/UART\uart.h ****  *
 292:C:/Users/Mafish/Documents/GitHub/MAB_Controller/Dave/Generated/UART\uart.h ****  * Example Usage:
 293:C:/Users/Mafish/Documents/GitHub/MAB_Controller/Dave/Generated/UART\uart.h ****  * @code
 294:C:/Users/Mafish/Documents/GitHub/MAB_Controller/Dave/Generated/UART\uart.h ****  *  //Description:
 295:C:/Users/Mafish/Documents/GitHub/MAB_Controller/Dave/Generated/UART\uart.h ****  *  //Transmits the text "UART APP supported.", if the UART APP version is v4.1.x, where x can be a
 296:C:/Users/Mafish/Documents/GitHub/MAB_Controller/Dave/Generated/UART\uart.h ****  *   #include <DAVE.h>
 297:C:/Users/Mafish/Documents/GitHub/MAB_Controller/Dave/Generated/UART\uart.h ****  *
 298:C:/Users/Mafish/Documents/GitHub/MAB_Controller/Dave/Generated/UART\uart.h ****  *   int main(void)
 299:C:/Users/Mafish/Documents/GitHub/MAB_Controller/Dave/Generated/UART\uart.h ****  *   {
 300:C:/Users/Mafish/Documents/GitHub/MAB_Controller/Dave/Generated/UART\uart.h ****  *     UART_STATUS_t init_status;
 301:C:/Users/Mafish/Documents/GitHub/MAB_Controller/Dave/Generated/UART\uart.h ****  *     DAVE_APP_VERSION_t uart_version;
 302:C:/Users/Mafish/Documents/GitHub/MAB_Controller/Dave/Generated/UART\uart.h ****  *     uint8_t valid_str[] = "UART APP supported.";
 303:C:/Users/Mafish/Documents/GitHub/MAB_Controller/Dave/Generated/UART\uart.h ****  *
 304:C:/Users/Mafish/Documents/GitHub/MAB_Controller/Dave/Generated/UART\uart.h ****  *     init_status = (UART_STATUS_t)UART_Init(&UART_0);
 305:C:/Users/Mafish/Documents/GitHub/MAB_Controller/Dave/Generated/UART\uart.h ****  *     if(init_status == UART_STATUS_SUCCESS)
 306:C:/Users/Mafish/Documents/GitHub/MAB_Controller/Dave/Generated/UART\uart.h ****  *     {
 307:C:/Users/Mafish/Documents/GitHub/MAB_Controller/Dave/Generated/UART\uart.h ****  *       uart_version = UART_GetAppVersion();
 308:C:/Users/Mafish/Documents/GitHub/MAB_Controller/Dave/Generated/UART\uart.h ****  *       if((uart_version.major == 4) &&
 309:C:/Users/Mafish/Documents/GitHub/MAB_Controller/Dave/Generated/UART\uart.h ****  *          (uart_version.minor == 1))
 310:C:/Users/Mafish/Documents/GitHub/MAB_Controller/Dave/Generated/UART\uart.h ****  *       {
 311:C:/Users/Mafish/Documents/GitHub/MAB_Controller/Dave/Generated/UART\uart.h ****  *         UART_Transmit(&UART_0, valid_str, sizeof(valid_str));
 312:C:/Users/Mafish/Documents/GitHub/MAB_Controller/Dave/Generated/UART\uart.h ****  *       }
 313:C:/Users/Mafish/Documents/GitHub/MAB_Controller/Dave/Generated/UART\uart.h ****  *     }
 314:C:/Users/Mafish/Documents/GitHub/MAB_Controller/Dave/Generated/UART\uart.h ****  *     else
 315:C:/Users/Mafish/Documents/GitHub/MAB_Controller/Dave/Generated/UART\uart.h ****  *     {
 316:C:/Users/Mafish/Documents/GitHub/MAB_Controller/Dave/Generated/UART\uart.h ****  *      XMC_DEBUG("main: Application initialization failed");
 317:C:/Users/Mafish/Documents/GitHub/MAB_Controller/Dave/Generated/UART\uart.h ****  *      while(1U)
 318:C:/Users/Mafish/Documents/GitHub/MAB_Controller/Dave/Generated/UART\uart.h ****  *      {
 319:C:/Users/Mafish/Documents/GitHub/MAB_Controller/Dave/Generated/UART\uart.h ****  *      }
 320:C:/Users/Mafish/Documents/GitHub/MAB_Controller/Dave/Generated/UART\uart.h ****  *     }
 321:C:/Users/Mafish/Documents/GitHub/MAB_Controller/Dave/Generated/UART\uart.h ****  *      return 1U;
 322:C:/Users/Mafish/Documents/GitHub/MAB_Controller/Dave/Generated/UART\uart.h ****  *  }
 323:C:/Users/Mafish/Documents/GitHub/MAB_Controller/Dave/Generated/UART\uart.h ****  *  @endcode
 324:C:/Users/Mafish/Documents/GitHub/MAB_Controller/Dave/Generated/UART\uart.h ****  */
 325:C:/Users/Mafish/Documents/GitHub/MAB_Controller/Dave/Generated/UART\uart.h **** DAVE_APP_VERSION_t UART_GetAppVersion(void);
 326:C:/Users/Mafish/Documents/GitHub/MAB_Controller/Dave/Generated/UART\uart.h **** 
 327:C:/Users/Mafish/Documents/GitHub/MAB_Controller/Dave/Generated/UART\uart.h **** /**
 328:C:/Users/Mafish/Documents/GitHub/MAB_Controller/Dave/Generated/UART\uart.h ****  * @brief Initializes the UART module as per the configuration made
 329:C:/Users/Mafish/Documents/GitHub/MAB_Controller/Dave/Generated/UART\uart.h ****  * in UI.
 330:C:/Users/Mafish/Documents/GitHub/MAB_Controller/Dave/Generated/UART\uart.h ****  * @param handle Pointer to static and dynamic content of APP configuration.
 331:C:/Users/Mafish/Documents/GitHub/MAB_Controller/Dave/Generated/UART\uart.h ****  * @return UART_STATUS_t: Status of UART driver initialization.\n
 332:C:/Users/Mafish/Documents/GitHub/MAB_Controller/Dave/Generated/UART\uart.h ****  *                    @ref UART_STATUS_SUCCESS - on successful initialization.\n
 333:C:/Users/Mafish/Documents/GitHub/MAB_Controller/Dave/Generated/UART\uart.h ****  *                    @ref UART_STATUS_FAILURE - if initialization fails.\n
 334:C:/Users/Mafish/Documents/GitHub/MAB_Controller/Dave/Generated/UART\uart.h ****  *                    @ref UART_STATUS_BUSY - if UART channel is busy.\n
 335:C:/Users/Mafish/Documents/GitHub/MAB_Controller/Dave/Generated/UART\uart.h ****  *
 336:C:/Users/Mafish/Documents/GitHub/MAB_Controller/Dave/Generated/UART\uart.h ****  * \par<b>Description:</b><br>
 337:C:/Users/Mafish/Documents/GitHub/MAB_Controller/Dave/Generated/UART\uart.h ****  * Initializes IO pins used for the UART communication, configures
 338:C:/Users/Mafish/Documents/GitHub/MAB_Controller/Dave/Generated/UART\uart.h ****  * USIC registers based on the settings provided in the GUI. Calculates divider
 339:C:/Users/Mafish/Documents/GitHub/MAB_Controller/Dave/Generated/UART\uart.h ****  * values PDIV and STEP for a precise baudrate. It also enables configured interrupt
 340:C:/Users/Mafish/Documents/GitHub/MAB_Controller/Dave/Generated/UART\uart.h ****  * flags and service request values.
 341:C:/Users/Mafish/Documents/GitHub/MAB_Controller/Dave/Generated/UART\uart.h ****  * <BR>
 342:C:/Users/Mafish/Documents/GitHub/MAB_Controller/Dave/Generated/UART\uart.h ****  *
 343:C:/Users/Mafish/Documents/GitHub/MAB_Controller/Dave/Generated/UART\uart.h ****  * Example Usage:
 344:C:/Users/Mafish/Documents/GitHub/MAB_Controller/Dave/Generated/UART\uart.h ****  * @code
 345:C:/Users/Mafish/Documents/GitHub/MAB_Controller/Dave/Generated/UART\uart.h ****  *   #include <DAVE.h>         //Declarations from DAVE Code Generation (includes SFR declaration)
 346:C:/Users/Mafish/Documents/GitHub/MAB_Controller/Dave/Generated/UART\uart.h ****  *
 347:C:/Users/Mafish/Documents/GitHub/MAB_Controller/Dave/Generated/UART\uart.h ****  *   int main(void)
 348:C:/Users/Mafish/Documents/GitHub/MAB_Controller/Dave/Generated/UART\uart.h ****  *   {
 349:C:/Users/Mafish/Documents/GitHub/MAB_Controller/Dave/Generated/UART\uart.h ****  *     UART_STATUS_t init_status;
 350:C:/Users/Mafish/Documents/GitHub/MAB_Controller/Dave/Generated/UART\uart.h ****  *
 351:C:/Users/Mafish/Documents/GitHub/MAB_Controller/Dave/Generated/UART\uart.h ****  *     init_status = (UART_STATUS_t)UART_Init(&UART_0);
 352:C:/Users/Mafish/Documents/GitHub/MAB_Controller/Dave/Generated/UART\uart.h ****  *     if(init_status == UART_STATUS_SUCCESS)
 353:C:/Users/Mafish/Documents/GitHub/MAB_Controller/Dave/Generated/UART\uart.h ****  *     {
 354:C:/Users/Mafish/Documents/GitHub/MAB_Controller/Dave/Generated/UART\uart.h ****  *         while(1U)
 355:C:/Users/Mafish/Documents/GitHub/MAB_Controller/Dave/Generated/UART\uart.h ****  *         {
 356:C:/Users/Mafish/Documents/GitHub/MAB_Controller/Dave/Generated/UART\uart.h ****  *         }
 357:C:/Users/Mafish/Documents/GitHub/MAB_Controller/Dave/Generated/UART\uart.h ****  *     }
 358:C:/Users/Mafish/Documents/GitHub/MAB_Controller/Dave/Generated/UART\uart.h ****  *     else
 359:C:/Users/Mafish/Documents/GitHub/MAB_Controller/Dave/Generated/UART\uart.h ****  *     {
 360:C:/Users/Mafish/Documents/GitHub/MAB_Controller/Dave/Generated/UART\uart.h ****  *      XMC_DEBUG("main: Application initialization failed");
 361:C:/Users/Mafish/Documents/GitHub/MAB_Controller/Dave/Generated/UART\uart.h ****  *      while(1U)
 362:C:/Users/Mafish/Documents/GitHub/MAB_Controller/Dave/Generated/UART\uart.h ****  *      {
 363:C:/Users/Mafish/Documents/GitHub/MAB_Controller/Dave/Generated/UART\uart.h ****  *      }
 364:C:/Users/Mafish/Documents/GitHub/MAB_Controller/Dave/Generated/UART\uart.h ****  *     }
 365:C:/Users/Mafish/Documents/GitHub/MAB_Controller/Dave/Generated/UART\uart.h ****  *      return 1U;
 366:C:/Users/Mafish/Documents/GitHub/MAB_Controller/Dave/Generated/UART\uart.h ****  *  }
 367:C:/Users/Mafish/Documents/GitHub/MAB_Controller/Dave/Generated/UART\uart.h ****  *  @endcode
 368:C:/Users/Mafish/Documents/GitHub/MAB_Controller/Dave/Generated/UART\uart.h ****  */
 369:C:/Users/Mafish/Documents/GitHub/MAB_Controller/Dave/Generated/UART\uart.h **** UART_STATUS_t UART_Init(const UART_t *const handle);
 370:C:/Users/Mafish/Documents/GitHub/MAB_Controller/Dave/Generated/UART\uart.h **** 
 371:C:/Users/Mafish/Documents/GitHub/MAB_Controller/Dave/Generated/UART\uart.h **** /**
 372:C:/Users/Mafish/Documents/GitHub/MAB_Controller/Dave/Generated/UART\uart.h ****  * @brief Registers a request for receiving data over UART channel.
 373:C:/Users/Mafish/Documents/GitHub/MAB_Controller/Dave/Generated/UART\uart.h ****  *
 374:C:/Users/Mafish/Documents/GitHub/MAB_Controller/Dave/Generated/UART\uart.h ****  *
 375:C:/Users/Mafish/Documents/GitHub/MAB_Controller/Dave/Generated/UART\uart.h ****  * @param  handle  Pointer to UART_t handle structure
 376:C:/Users/Mafish/Documents/GitHub/MAB_Controller/Dave/Generated/UART\uart.h ****  * @param data_ptr  Pointer to data of type uint8_t.
 377:C:/Users/Mafish/Documents/GitHub/MAB_Controller/Dave/Generated/UART\uart.h ****  * @param  count  Total no of bytes to be received.\n
 378:C:/Users/Mafish/Documents/GitHub/MAB_Controller/Dave/Generated/UART\uart.h ****  *                \b Range: minimum= 1, maximum= maximum value supported by type uint32_t.
 379:C:/Users/Mafish/Documents/GitHub/MAB_Controller/Dave/Generated/UART\uart.h ****  *
 380:C:/Users/Mafish/Documents/GitHub/MAB_Controller/Dave/Generated/UART\uart.h ****  * @return  UART_STATUS_t: Status for receive request.\n
 381:C:/Users/Mafish/Documents/GitHub/MAB_Controller/Dave/Generated/UART\uart.h ****  *                        @ref UART_STATUS_SUCCESS if the request is accepted.\n
 382:C:/Users/Mafish/Documents/GitHub/MAB_Controller/Dave/Generated/UART\uart.h ****  *                        @ref UART_STATUS_BUSY if a reception is in progress.\n
 383:C:/Users/Mafish/Documents/GitHub/MAB_Controller/Dave/Generated/UART\uart.h ****  *                        @ref UART_STATUS_BUFFER_INVALID if the data_ptr is NULL or count is 0. \n
 384:C:/Users/Mafish/Documents/GitHub/MAB_Controller/Dave/Generated/UART\uart.h ****  *
 385:C:/Users/Mafish/Documents/GitHub/MAB_Controller/Dave/Generated/UART\uart.h ****  *
 386:C:/Users/Mafish/Documents/GitHub/MAB_Controller/Dave/Generated/UART\uart.h ****  * \par<b>Description:</b><br>
 387:C:/Users/Mafish/Documents/GitHub/MAB_Controller/Dave/Generated/UART\uart.h ****  * Data will be received asynchronously. After the requested number of data bytes are received,
 388:C:/Users/Mafish/Documents/GitHub/MAB_Controller/Dave/Generated/UART\uart.h ****  * optionally, the user configured callback function will be executed.
 389:C:/Users/Mafish/Documents/GitHub/MAB_Controller/Dave/Generated/UART\uart.h ****  * Data reception is accomplished using the receive mode selected in the UI.
 390:C:/Users/Mafish/Documents/GitHub/MAB_Controller/Dave/Generated/UART\uart.h ****  * <b>Interrupt:</b><br>
 391:C:/Users/Mafish/Documents/GitHub/MAB_Controller/Dave/Generated/UART\uart.h ****  * Based on the UI configuration, either standard receive buffer(RBUF) or receive FIFO(OUT) is used
 392:C:/Users/Mafish/Documents/GitHub/MAB_Controller/Dave/Generated/UART\uart.h ****  * for data reception. An interrupt is configured for reading received data from the bus. This func
 393:C:/Users/Mafish/Documents/GitHub/MAB_Controller/Dave/Generated/UART\uart.h ****  * only registers a request to receive a number of data bytes from a USIC channel. If FIFO is
 394:C:/Users/Mafish/Documents/GitHub/MAB_Controller/Dave/Generated/UART\uart.h ****  * configured for reception, the FIFO limit is dynamically configured to optimally utilize the
 395:C:/Users/Mafish/Documents/GitHub/MAB_Controller/Dave/Generated/UART\uart.h ****  * CPU load. Before starting data reception, the receive buffers are flushed. So only those data, r
 396:C:/Users/Mafish/Documents/GitHub/MAB_Controller/Dave/Generated/UART\uart.h ****  * after calling the API, will be placed in the user buffer.
 397:C:/Users/Mafish/Documents/GitHub/MAB_Controller/Dave/Generated/UART\uart.h ****  * When all the requested number of data bytes are received, the configured callback
 398:C:/Users/Mafish/Documents/GitHub/MAB_Controller/Dave/Generated/UART\uart.h ****  * function will be executed.
 399:C:/Users/Mafish/Documents/GitHub/MAB_Controller/Dave/Generated/UART\uart.h ****  * If a callback function is not configured, the user has to poll for the value of the
 400:C:/Users/Mafish/Documents/GitHub/MAB_Controller/Dave/Generated/UART\uart.h ****  * variable, \a handle->runtime->rx_busy to be false. The value is updated to \a false when all the
 401:C:/Users/Mafish/Documents/GitHub/MAB_Controller/Dave/Generated/UART\uart.h ****  * requested number of data bytes are received.
 402:C:/Users/Mafish/Documents/GitHub/MAB_Controller/Dave/Generated/UART\uart.h ****  * <br>
 403:C:/Users/Mafish/Documents/GitHub/MAB_Controller/Dave/Generated/UART\uart.h ****  * <b>DMA:</b><br>
 404:C:/Users/Mafish/Documents/GitHub/MAB_Controller/Dave/Generated/UART\uart.h ****  * DMA mode is available only in XMC4x family of microcontrollers. In this mode, a DMA channel is
 405:C:/Users/Mafish/Documents/GitHub/MAB_Controller/Dave/Generated/UART\uart.h ****  * configured for receiving data from standard receive buffer(RBUF) to the user buffer. By calling
 406:C:/Users/Mafish/Documents/GitHub/MAB_Controller/Dave/Generated/UART\uart.h ****  * this API, the DMA channel destination address is configured to the user buffer and the channel i
 407:C:/Users/Mafish/Documents/GitHub/MAB_Controller/Dave/Generated/UART\uart.h ****  * enabled. FIFO will not be used when the receive mode is DMA.
 408:C:/Users/Mafish/Documents/GitHub/MAB_Controller/Dave/Generated/UART\uart.h ****  * Before starting data reception, the receive buffers are flushed. So only those data, received
 409:C:/Users/Mafish/Documents/GitHub/MAB_Controller/Dave/Generated/UART\uart.h ****  * after calling the API, will be placed in the user buffer.
 410:C:/Users/Mafish/Documents/GitHub/MAB_Controller/Dave/Generated/UART\uart.h ****  * When all the requested number of data bytes are received, the configured callback
 411:C:/Users/Mafish/Documents/GitHub/MAB_Controller/Dave/Generated/UART\uart.h ****  * function will be executed.
 412:C:/Users/Mafish/Documents/GitHub/MAB_Controller/Dave/Generated/UART\uart.h ****  * If a callback function is not configured, the user has to poll for the value of the
 413:C:/Users/Mafish/Documents/GitHub/MAB_Controller/Dave/Generated/UART\uart.h ****  * variable, \a handle->runtime->rx_busy to be false. The value is updated to \a false when all the
 414:C:/Users/Mafish/Documents/GitHub/MAB_Controller/Dave/Generated/UART\uart.h ****  * requested number of data bytes are received.
 415:C:/Users/Mafish/Documents/GitHub/MAB_Controller/Dave/Generated/UART\uart.h ****  * <br>
 416:C:/Users/Mafish/Documents/GitHub/MAB_Controller/Dave/Generated/UART\uart.h ****  * <b>Direct</b><br>
 417:C:/Users/Mafish/Documents/GitHub/MAB_Controller/Dave/Generated/UART\uart.h ****  * In Direct receive mode, neither interrupt nor DMA is used. The API polls
 418:C:/Users/Mafish/Documents/GitHub/MAB_Controller/Dave/Generated/UART\uart.h ****  * the receive flag to read the received data and waits for all the requested number of bytes to
 419:C:/Users/Mafish/Documents/GitHub/MAB_Controller/Dave/Generated/UART\uart.h ****  * be received. Based on FIFO configuration, either RBUF or OUT register is used for reading receiv
 420:C:/Users/Mafish/Documents/GitHub/MAB_Controller/Dave/Generated/UART\uart.h ****  * data. Before starting data reception, the receive buffers are flushed. So only those data, recei
 421:C:/Users/Mafish/Documents/GitHub/MAB_Controller/Dave/Generated/UART\uart.h ****  * after calling the API, will be placed in the user buffer.
 422:C:/Users/Mafish/Documents/GitHub/MAB_Controller/Dave/Generated/UART\uart.h ****  * <i><b> Note:</b> In Direct mode, the API blocks the CPU until the count of bytes requested is re
 423:C:/Users/Mafish/Documents/GitHub/MAB_Controller/Dave/Generated/UART\uart.h ****  * If this behaviour is not desired, use other APIs like @ref UART_GetReceivedWord, @ref UART_GetPr
 424:C:/Users/Mafish/Documents/GitHub/MAB_Controller/Dave/Generated/UART\uart.h ****  *
 425:C:/Users/Mafish/Documents/GitHub/MAB_Controller/Dave/Generated/UART\uart.h ****  * Example Usage:
 426:C:/Users/Mafish/Documents/GitHub/MAB_Controller/Dave/Generated/UART\uart.h ****  * @code
 427:C:/Users/Mafish/Documents/GitHub/MAB_Controller/Dave/Generated/UART\uart.h ****  *   #include <DAVE.h>         //Declarations from DAVE Code Generation (includes SFR declaration)
 428:C:/Users/Mafish/Documents/GitHub/MAB_Controller/Dave/Generated/UART\uart.h ****  *
 429:C:/Users/Mafish/Documents/GitHub/MAB_Controller/Dave/Generated/UART\uart.h ****  *   //Pre-condition:
 430:C:/Users/Mafish/Documents/GitHub/MAB_Controller/Dave/Generated/UART\uart.h ****  *   //Receive mode should be configured as "Direct".
 431:C:/Users/Mafish/Documents/GitHub/MAB_Controller/Dave/Generated/UART\uart.h ****  *   //Description:
 432:C:/Users/Mafish/Documents/GitHub/MAB_Controller/Dave/Generated/UART\uart.h ****  *   //Transmits 10 bytes of data after receiving 10 bytes of data.
 433:C:/Users/Mafish/Documents/GitHub/MAB_Controller/Dave/Generated/UART\uart.h ****  *
 434:C:/Users/Mafish/Documents/GitHub/MAB_Controller/Dave/Generated/UART\uart.h ****  *   int main(void)
 435:C:/Users/Mafish/Documents/GitHub/MAB_Controller/Dave/Generated/UART\uart.h ****  *   {
 436:C:/Users/Mafish/Documents/GitHub/MAB_Controller/Dave/Generated/UART\uart.h ****  *     UART_STATUS_t init_status;
 437:C:/Users/Mafish/Documents/GitHub/MAB_Controller/Dave/Generated/UART\uart.h ****  *     uint8_t ReadData[10];
 438:C:/Users/Mafish/Documents/GitHub/MAB_Controller/Dave/Generated/UART\uart.h ****  *
 439:C:/Users/Mafish/Documents/GitHub/MAB_Controller/Dave/Generated/UART\uart.h ****  *     init_status = (UART_STATUS_t)UART_Init(&UART_0);
 440:C:/Users/Mafish/Documents/GitHub/MAB_Controller/Dave/Generated/UART\uart.h ****  *     if(init_status == UART_STATUS_SUCCESS)
 441:C:/Users/Mafish/Documents/GitHub/MAB_Controller/Dave/Generated/UART\uart.h ****  *     {
 442:C:/Users/Mafish/Documents/GitHub/MAB_Controller/Dave/Generated/UART\uart.h ****  *       while(1)
 443:C:/Users/Mafish/Documents/GitHub/MAB_Controller/Dave/Generated/UART\uart.h ****  *       {
 444:C:/Users/Mafish/Documents/GitHub/MAB_Controller/Dave/Generated/UART\uart.h ****  *         //Receive 10 bytes of data
 445:C:/Users/Mafish/Documents/GitHub/MAB_Controller/Dave/Generated/UART\uart.h ****  *         if(UART_Receive(&UART_0, ReadData, 10) == UART_STATUS_SUCCESS)
 446:C:/Users/Mafish/Documents/GitHub/MAB_Controller/Dave/Generated/UART\uart.h ****  *         {
 447:C:/Users/Mafish/Documents/GitHub/MAB_Controller/Dave/Generated/UART\uart.h ****  *           //Retransmit the received 10 bytes
 448:C:/Users/Mafish/Documents/GitHub/MAB_Controller/Dave/Generated/UART\uart.h ****  *           UART_Transmit(&UART_0, ReadData, 10);
 449:C:/Users/Mafish/Documents/GitHub/MAB_Controller/Dave/Generated/UART\uart.h ****  *         }
 450:C:/Users/Mafish/Documents/GitHub/MAB_Controller/Dave/Generated/UART\uart.h ****  *       }
 451:C:/Users/Mafish/Documents/GitHub/MAB_Controller/Dave/Generated/UART\uart.h ****  *     }
 452:C:/Users/Mafish/Documents/GitHub/MAB_Controller/Dave/Generated/UART\uart.h ****  *     else
 453:C:/Users/Mafish/Documents/GitHub/MAB_Controller/Dave/Generated/UART\uart.h ****  *     {
 454:C:/Users/Mafish/Documents/GitHub/MAB_Controller/Dave/Generated/UART\uart.h ****  *      XMC_DEBUG("main: Application initialization failed");
 455:C:/Users/Mafish/Documents/GitHub/MAB_Controller/Dave/Generated/UART\uart.h ****  *      while(1U)
 456:C:/Users/Mafish/Documents/GitHub/MAB_Controller/Dave/Generated/UART\uart.h ****  *      {
 457:C:/Users/Mafish/Documents/GitHub/MAB_Controller/Dave/Generated/UART\uart.h ****  *      }
 458:C:/Users/Mafish/Documents/GitHub/MAB_Controller/Dave/Generated/UART\uart.h ****  *     }
 459:C:/Users/Mafish/Documents/GitHub/MAB_Controller/Dave/Generated/UART\uart.h ****  *      return 1U;
 460:C:/Users/Mafish/Documents/GitHub/MAB_Controller/Dave/Generated/UART\uart.h ****  *  }
 461:C:/Users/Mafish/Documents/GitHub/MAB_Controller/Dave/Generated/UART\uart.h ****  *  @endcode
 462:C:/Users/Mafish/Documents/GitHub/MAB_Controller/Dave/Generated/UART\uart.h ****  *
 463:C:/Users/Mafish/Documents/GitHub/MAB_Controller/Dave/Generated/UART\uart.h ****  */
 464:C:/Users/Mafish/Documents/GitHub/MAB_Controller/Dave/Generated/UART\uart.h **** UART_STATUS_t UART_Receive(const UART_t *const handle, uint8_t* data_ptr, uint32_t count);
 465:C:/Users/Mafish/Documents/GitHub/MAB_Controller/Dave/Generated/UART\uart.h **** 
 466:C:/Users/Mafish/Documents/GitHub/MAB_Controller/Dave/Generated/UART\uart.h **** /**
 467:C:/Users/Mafish/Documents/GitHub/MAB_Controller/Dave/Generated/UART\uart.h ****  * @brief Registers a request for transmitting data over UART channel.
 468:C:/Users/Mafish/Documents/GitHub/MAB_Controller/Dave/Generated/UART\uart.h ****  *
 469:C:/Users/Mafish/Documents/GitHub/MAB_Controller/Dave/Generated/UART\uart.h ****  * @param  handle  UART APP handle pointer of type @ref UART_t
 470:C:/Users/Mafish/Documents/GitHub/MAB_Controller/Dave/Generated/UART\uart.h ****  * @param  data_ptr Pointer to data of type uint8_t.
 471:C:/Users/Mafish/Documents/GitHub/MAB_Controller/Dave/Generated/UART\uart.h ****  * @param  count Total no of words to be transmitted.\n
 472:C:/Users/Mafish/Documents/GitHub/MAB_Controller/Dave/Generated/UART\uart.h ****  * \b Range: minimum= 1, maximum= maximum supported by uint32_t.
 473:C:/Users/Mafish/Documents/GitHub/MAB_Controller/Dave/Generated/UART\uart.h ****  *
 474:C:/Users/Mafish/Documents/GitHub/MAB_Controller/Dave/Generated/UART\uart.h ****  * @return  UART_STATUS_t: Status of transmit request.\n
 475:C:/Users/Mafish/Documents/GitHub/MAB_Controller/Dave/Generated/UART\uart.h ****  *                        @ref UART_STATUS_SUCCESS if the request is accepted.\n
 476:C:/Users/Mafish/Documents/GitHub/MAB_Controller/Dave/Generated/UART\uart.h ****  *                        @ref UART_STATUS_BUSY if a transmission is in progress.\n
 477:C:/Users/Mafish/Documents/GitHub/MAB_Controller/Dave/Generated/UART\uart.h ****  *                        @ref UART_STATUS_BUFFER_INVALID if the data_ptr is NULL or count is 0.\n
 478:C:/Users/Mafish/Documents/GitHub/MAB_Controller/Dave/Generated/UART\uart.h ****  *
 479:C:/Users/Mafish/Documents/GitHub/MAB_Controller/Dave/Generated/UART\uart.h ****  * <i>Imp Note:</i> Return value should be validated by user to ensure that the
 480:C:/Users/Mafish/Documents/GitHub/MAB_Controller/Dave/Generated/UART\uart.h ****  * request is registered.
 481:C:/Users/Mafish/Documents/GitHub/MAB_Controller/Dave/Generated/UART\uart.h ****  *
 482:C:/Users/Mafish/Documents/GitHub/MAB_Controller/Dave/Generated/UART\uart.h ****  * \par<b>Description:</b><br>
 483:C:/Users/Mafish/Documents/GitHub/MAB_Controller/Dave/Generated/UART\uart.h ****  * Transmits data using the UART channel. Transmission is accomplished using the transmit mode
 484:C:/Users/Mafish/Documents/GitHub/MAB_Controller/Dave/Generated/UART\uart.h ****  * as configured in the UI.<br>
 485:C:/Users/Mafish/Documents/GitHub/MAB_Controller/Dave/Generated/UART\uart.h ****  * <b>Interrupt:</b><br>
 486:C:/Users/Mafish/Documents/GitHub/MAB_Controller/Dave/Generated/UART\uart.h ****  * The data transmission is accomplished using transmit interrupt. User can configure
 487:C:/Users/Mafish/Documents/GitHub/MAB_Controller/Dave/Generated/UART\uart.h ****  * a callback function in the APP UI. When the data is fully transmitted, the callback
 488:C:/Users/Mafish/Documents/GitHub/MAB_Controller/Dave/Generated/UART\uart.h ****  * function will be executed. If transmit FIFO is enabled, the trigger limit is set to 1.
 489:C:/Users/Mafish/Documents/GitHub/MAB_Controller/Dave/Generated/UART\uart.h ****  * So the transmit interrupt will be generated when all the data in FIFO is moved out of FIFO.
 490:C:/Users/Mafish/Documents/GitHub/MAB_Controller/Dave/Generated/UART\uart.h ****  * The APP handle's runtime structure is used to store the data pointer, count, data index
 491:C:/Users/Mafish/Documents/GitHub/MAB_Controller/Dave/Generated/UART\uart.h ****  * and status of transmission. This function only registers a data transmission request if
 492:C:/Users/Mafish/Documents/GitHub/MAB_Controller/Dave/Generated/UART\uart.h ****  * there is no active transmission in progress. Actual data transmission happens in the transmit
 493:C:/Users/Mafish/Documents/GitHub/MAB_Controller/Dave/Generated/UART\uart.h ****  * interrupt service routine. A trigger is generated for the transmit interrupt to start loading
 494:C:/Users/Mafish/Documents/GitHub/MAB_Controller/Dave/Generated/UART\uart.h ****  * the data to the transmit buffer. If transmit FIFO is configured, the data is filled into the FIF
 495:C:/Users/Mafish/Documents/GitHub/MAB_Controller/Dave/Generated/UART\uart.h ****  * Transmit interrupt will be generated subsequently when the transmit FIFO is empty. At this
 496:C:/Users/Mafish/Documents/GitHub/MAB_Controller/Dave/Generated/UART\uart.h ****  * point of time, if there is some more data to be transmitted, it is loaded to the FIFO again.
 497:C:/Users/Mafish/Documents/GitHub/MAB_Controller/Dave/Generated/UART\uart.h ****  * When FIFO is not enabled, data is transmitted one byte at a time. On transmission of each byte
 498:C:/Users/Mafish/Documents/GitHub/MAB_Controller/Dave/Generated/UART\uart.h ****  * an interrupt is generated and the next byte is transmitted in the interrupt service routine.
 499:C:/Users/Mafish/Documents/GitHub/MAB_Controller/Dave/Generated/UART\uart.h ****  * Callback function is executed when all the data bytes are transmitted.
 500:C:/Users/Mafish/Documents/GitHub/MAB_Controller/Dave/Generated/UART\uart.h ****  * If a callback function is not configured, user has to poll for the value of \a tx_busy flag of
 501:C:/Users/Mafish/Documents/GitHub/MAB_Controller/Dave/Generated/UART\uart.h ****  * the APP handle structure( \a handle->runtime->tx_busy ) to check for
 502:C:/Users/Mafish/Documents/GitHub/MAB_Controller/Dave/Generated/UART\uart.h ****  * the completion of data transmission.<br>
 503:C:/Users/Mafish/Documents/GitHub/MAB_Controller/Dave/Generated/UART\uart.h ****  * <b>DMA:</b><br>
 504:C:/Users/Mafish/Documents/GitHub/MAB_Controller/Dave/Generated/UART\uart.h ****  * A DMA channel is configured to provide data to the UART transmit buffer. This removes the load
 505:C:/Users/Mafish/Documents/GitHub/MAB_Controller/Dave/Generated/UART\uart.h ****  * off the CPU. This API will only configure and enable the DMA channel by specifying the data buff
 506:C:/Users/Mafish/Documents/GitHub/MAB_Controller/Dave/Generated/UART\uart.h ****  * and count of bytes to transmit. Rest is taken care without the CPU's intervention. User can conf
 507:C:/Users/Mafish/Documents/GitHub/MAB_Controller/Dave/Generated/UART\uart.h ****  * a callback function in the APP UI. When the transmission is complete, the callback function will
 508:C:/Users/Mafish/Documents/GitHub/MAB_Controller/Dave/Generated/UART\uart.h ****  * FIFO will not be used in DMA mode. Transmit buffer interrupt is configured for triggering the
 509:C:/Users/Mafish/Documents/GitHub/MAB_Controller/Dave/Generated/UART\uart.h ****  * DMA channel. So each byte is transmitted in the background through the DMA channel.
 510:C:/Users/Mafish/Documents/GitHub/MAB_Controller/Dave/Generated/UART\uart.h ****  * If the callback function is not configured, \a handle->runtime->tx_busy flag can be checked to
 511:C:/Users/Mafish/Documents/GitHub/MAB_Controller/Dave/Generated/UART\uart.h ****  * verify if the transmission is complete.
 512:C:/Users/Mafish/Documents/GitHub/MAB_Controller/Dave/Generated/UART\uart.h ****  * <b>Direct:</b><br>
 513:C:/Users/Mafish/Documents/GitHub/MAB_Controller/Dave/Generated/UART\uart.h ****  * Data will be transmitted using polling method. Status flags are used to check if data can be tra
 514:C:/Users/Mafish/Documents/GitHub/MAB_Controller/Dave/Generated/UART\uart.h ****  * <i><b> Note:</b> In Direct mode, the API blocks the CPU until the count of bytes requested is tr
 515:C:/Users/Mafish/Documents/GitHub/MAB_Controller/Dave/Generated/UART\uart.h ****  * If this behaviour is not desired, use other APIs like @ref UART_TransmitWord, @ref UART_GetProto
 516:C:/Users/Mafish/Documents/GitHub/MAB_Controller/Dave/Generated/UART\uart.h ****  *
 517:C:/Users/Mafish/Documents/GitHub/MAB_Controller/Dave/Generated/UART\uart.h ****  * Example Usage:
 518:C:/Users/Mafish/Documents/GitHub/MAB_Controller/Dave/Generated/UART\uart.h ****  * @code
 519:C:/Users/Mafish/Documents/GitHub/MAB_Controller/Dave/Generated/UART\uart.h ****  *   #include <DAVE.h>         //Declarations from DAVE Code Generation (includes SFR declaration)
 520:C:/Users/Mafish/Documents/GitHub/MAB_Controller/Dave/Generated/UART\uart.h ****  *
 521:C:/Users/Mafish/Documents/GitHub/MAB_Controller/Dave/Generated/UART\uart.h ****  *   //Pre-condition:
 522:C:/Users/Mafish/Documents/GitHub/MAB_Controller/Dave/Generated/UART\uart.h ****  *   //Transmit mode should be configured as "Direct".
 523:C:/Users/Mafish/Documents/GitHub/MAB_Controller/Dave/Generated/UART\uart.h ****  *   //Description:
 524:C:/Users/Mafish/Documents/GitHub/MAB_Controller/Dave/Generated/UART\uart.h ****  *   //Transmits the string "Infineon".
 525:C:/Users/Mafish/Documents/GitHub/MAB_Controller/Dave/Generated/UART\uart.h ****  *
 526:C:/Users/Mafish/Documents/GitHub/MAB_Controller/Dave/Generated/UART\uart.h ****  *   int main(void)
 527:C:/Users/Mafish/Documents/GitHub/MAB_Controller/Dave/Generated/UART\uart.h ****  *   {
 528:C:/Users/Mafish/Documents/GitHub/MAB_Controller/Dave/Generated/UART\uart.h ****  *     UART_STATUS_t init_status;
 529:C:/Users/Mafish/Documents/GitHub/MAB_Controller/Dave/Generated/UART\uart.h ****  *     uint8_t Send_Data[] = "Infineon";
 530:C:/Users/Mafish/Documents/GitHub/MAB_Controller/Dave/Generated/UART\uart.h ****  *
 531:C:/Users/Mafish/Documents/GitHub/MAB_Controller/Dave/Generated/UART\uart.h ****  *     init_status = (UART_STATUS_t)UART_Init(&UART_0);
 532:C:/Users/Mafish/Documents/GitHub/MAB_Controller/Dave/Generated/UART\uart.h ****  *     if(init_status == UART_STATUS_SUCCESS)
 533:C:/Users/Mafish/Documents/GitHub/MAB_Controller/Dave/Generated/UART\uart.h ****  *     {
 534:C:/Users/Mafish/Documents/GitHub/MAB_Controller/Dave/Generated/UART\uart.h ****  *       //Transmit the string.
 535:C:/Users/Mafish/Documents/GitHub/MAB_Controller/Dave/Generated/UART\uart.h ****  *       UART_Transmit(&UART_0, Send_Data, sizeof(Send_Data)-1);
 536:C:/Users/Mafish/Documents/GitHub/MAB_Controller/Dave/Generated/UART\uart.h ****  *       while(1)
 537:C:/Users/Mafish/Documents/GitHub/MAB_Controller/Dave/Generated/UART\uart.h ****  *       {
 538:C:/Users/Mafish/Documents/GitHub/MAB_Controller/Dave/Generated/UART\uart.h ****  *       }
 539:C:/Users/Mafish/Documents/GitHub/MAB_Controller/Dave/Generated/UART\uart.h ****  *     }
 540:C:/Users/Mafish/Documents/GitHub/MAB_Controller/Dave/Generated/UART\uart.h ****  *     else
 541:C:/Users/Mafish/Documents/GitHub/MAB_Controller/Dave/Generated/UART\uart.h ****  *     {
 542:C:/Users/Mafish/Documents/GitHub/MAB_Controller/Dave/Generated/UART\uart.h ****  *      XMC_DEBUG("main: Application initialization failed");
 543:C:/Users/Mafish/Documents/GitHub/MAB_Controller/Dave/Generated/UART\uart.h ****  *      while(1U)
 544:C:/Users/Mafish/Documents/GitHub/MAB_Controller/Dave/Generated/UART\uart.h ****  *      {
 545:C:/Users/Mafish/Documents/GitHub/MAB_Controller/Dave/Generated/UART\uart.h ****  *      }
 546:C:/Users/Mafish/Documents/GitHub/MAB_Controller/Dave/Generated/UART\uart.h ****  *     }
 547:C:/Users/Mafish/Documents/GitHub/MAB_Controller/Dave/Generated/UART\uart.h ****  *      return 1U;
 548:C:/Users/Mafish/Documents/GitHub/MAB_Controller/Dave/Generated/UART\uart.h ****  *  }
 549:C:/Users/Mafish/Documents/GitHub/MAB_Controller/Dave/Generated/UART\uart.h ****  * @endcode
 550:C:/Users/Mafish/Documents/GitHub/MAB_Controller/Dave/Generated/UART\uart.h ****  *
 551:C:/Users/Mafish/Documents/GitHub/MAB_Controller/Dave/Generated/UART\uart.h ****  */
 552:C:/Users/Mafish/Documents/GitHub/MAB_Controller/Dave/Generated/UART\uart.h **** UART_STATUS_t UART_Transmit(const UART_t *const handle, uint8_t* data_ptr, uint32_t count);
 553:C:/Users/Mafish/Documents/GitHub/MAB_Controller/Dave/Generated/UART\uart.h **** 
 554:C:/Users/Mafish/Documents/GitHub/MAB_Controller/Dave/Generated/UART\uart.h **** #if (defined UART_TX_INTERRUPT_USED || defined UART_TX_DMA_USED)
 555:C:/Users/Mafish/Documents/GitHub/MAB_Controller/Dave/Generated/UART\uart.h **** /**
 556:C:/Users/Mafish/Documents/GitHub/MAB_Controller/Dave/Generated/UART\uart.h ****  * @brief Aborts the ongoing data transmission.
 557:C:/Users/Mafish/Documents/GitHub/MAB_Controller/Dave/Generated/UART\uart.h ****  * @param handle  UART APP handle pointer of type @ref UART_t
 558:C:/Users/Mafish/Documents/GitHub/MAB_Controller/Dave/Generated/UART\uart.h ****  * @return UART_STATUS_t: Result of transmit abort request.\n
 559:C:/Users/Mafish/Documents/GitHub/MAB_Controller/Dave/Generated/UART\uart.h ****  *                       @ref UART_STATUS_SUCCESS if the UART channel transmission is stopped
 560:C:/Users/Mafish/Documents/GitHub/MAB_Controller/Dave/Generated/UART\uart.h ****  *                       successfully.\n
 561:C:/Users/Mafish/Documents/GitHub/MAB_Controller/Dave/Generated/UART\uart.h ****  *                       @ref UART_STATUS_MODE_MISMATCH if transmit mode is Direct.\n
 562:C:/Users/Mafish/Documents/GitHub/MAB_Controller/Dave/Generated/UART\uart.h ****  *
 563:C:/Users/Mafish/Documents/GitHub/MAB_Controller/Dave/Generated/UART\uart.h ****  * \par<b>Description:</b><br>
 564:C:/Users/Mafish/Documents/GitHub/MAB_Controller/Dave/Generated/UART\uart.h ****  * If there is a transmission in progress, it will be stopped. If transmit FIFO is used,
 565:C:/Users/Mafish/Documents/GitHub/MAB_Controller/Dave/Generated/UART\uart.h ****  * the existing data will be flushed. After the transmission is stopped, user can start
 566:C:/Users/Mafish/Documents/GitHub/MAB_Controller/Dave/Generated/UART\uart.h ****  * a new transmission without delay. Abort request for transmit mode direct cannot be serviced sinc
 567:C:/Users/Mafish/Documents/GitHub/MAB_Controller/Dave/Generated/UART\uart.h ****  * the direct mode transmit API is a blocking call.
 568:C:/Users/Mafish/Documents/GitHub/MAB_Controller/Dave/Generated/UART\uart.h ****  *
 569:C:/Users/Mafish/Documents/GitHub/MAB_Controller/Dave/Generated/UART\uart.h ****  * Example Usage:
 570:C:/Users/Mafish/Documents/GitHub/MAB_Controller/Dave/Generated/UART\uart.h ****  * @code
 571:C:/Users/Mafish/Documents/GitHub/MAB_Controller/Dave/Generated/UART\uart.h ****  *   #include <DAVE.h>         //Declarations from DAVE Code Generation (includes SFR declaration)
 572:C:/Users/Mafish/Documents/GitHub/MAB_Controller/Dave/Generated/UART\uart.h ****  *
 573:C:/Users/Mafish/Documents/GitHub/MAB_Controller/Dave/Generated/UART\uart.h ****  *   //Pre-condition:
 574:C:/Users/Mafish/Documents/GitHub/MAB_Controller/Dave/Generated/UART\uart.h ****  *   //Transmit mode should be configured as "Interrupt".
 575:C:/Users/Mafish/Documents/GitHub/MAB_Controller/Dave/Generated/UART\uart.h ****  *   //Description:
 576:C:/Users/Mafish/Documents/GitHub/MAB_Controller/Dave/Generated/UART\uart.h ****  *   //Initiates the transmission of one string, aborts the transmission immediately and
 577:C:/Users/Mafish/Documents/GitHub/MAB_Controller/Dave/Generated/UART\uart.h ****  *   //starts transmission of another string. The receiver might see traces of first string followe
 578:C:/Users/Mafish/Documents/GitHub/MAB_Controller/Dave/Generated/UART\uart.h ****  *   //by the complete second string.
 579:C:/Users/Mafish/Documents/GitHub/MAB_Controller/Dave/Generated/UART\uart.h ****  *
 580:C:/Users/Mafish/Documents/GitHub/MAB_Controller/Dave/Generated/UART\uart.h ****  *   int main(void)
 581:C:/Users/Mafish/Documents/GitHub/MAB_Controller/Dave/Generated/UART\uart.h ****  *   {
 582:C:/Users/Mafish/Documents/GitHub/MAB_Controller/Dave/Generated/UART\uart.h ****  *     UART_STATUS_t init_status;
 583:C:/Users/Mafish/Documents/GitHub/MAB_Controller/Dave/Generated/UART\uart.h ****  *     //String1
 584:C:/Users/Mafish/Documents/GitHub/MAB_Controller/Dave/Generated/UART\uart.h ****  *     uint8_t Send_Data[] = "Infineon DAVE application.";
 585:C:/Users/Mafish/Documents/GitHub/MAB_Controller/Dave/Generated/UART\uart.h ****  *     //String2
 586:C:/Users/Mafish/Documents/GitHub/MAB_Controller/Dave/Generated/UART\uart.h ****  *     uint8_t NewData[] = "New data message";
 587:C:/Users/Mafish/Documents/GitHub/MAB_Controller/Dave/Generated/UART\uart.h ****  *
 588:C:/Users/Mafish/Documents/GitHub/MAB_Controller/Dave/Generated/UART\uart.h ****  *     init_status = (UART_STATUS_t)UART_Init(&UART_0);
 589:C:/Users/Mafish/Documents/GitHub/MAB_Controller/Dave/Generated/UART\uart.h ****  *     if(init_status == UART_STATUS_SUCCESS)
 590:C:/Users/Mafish/Documents/GitHub/MAB_Controller/Dave/Generated/UART\uart.h ****  *     {
 591:C:/Users/Mafish/Documents/GitHub/MAB_Controller/Dave/Generated/UART\uart.h ****  *       //Initiate transmission of first string.
 592:C:/Users/Mafish/Documents/GitHub/MAB_Controller/Dave/Generated/UART\uart.h ****  *       UART_Transmit(&UART_0, Send_Data, sizeof(Send_Data));
 593:C:/Users/Mafish/Documents/GitHub/MAB_Controller/Dave/Generated/UART\uart.h ****  *		 //When the first string is being transmitted,
 594:C:/Users/Mafish/Documents/GitHub/MAB_Controller/Dave/Generated/UART\uart.h ****  *       if(UART_0.runtime->tx_busy)
 595:C:/Users/Mafish/Documents/GitHub/MAB_Controller/Dave/Generated/UART\uart.h ****  *       {
 596:C:/Users/Mafish/Documents/GitHub/MAB_Controller/Dave/Generated/UART\uart.h ****  *         //Stop the transmission of first string.
 597:C:/Users/Mafish/Documents/GitHub/MAB_Controller/Dave/Generated/UART\uart.h ****  *         if(UART_AbortTransmit(&UART_0) == UART_STATUS_SUCCESS)
 598:C:/Users/Mafish/Documents/GitHub/MAB_Controller/Dave/Generated/UART\uart.h ****  *         {
 599:C:/Users/Mafish/Documents/GitHub/MAB_Controller/Dave/Generated/UART\uart.h ****  *           //Start the transmission of second string
 600:C:/Users/Mafish/Documents/GitHub/MAB_Controller/Dave/Generated/UART\uart.h ****  *           UART_Transmit(&UART_0, NewData, sizeof(NewData));
 601:C:/Users/Mafish/Documents/GitHub/MAB_Controller/Dave/Generated/UART\uart.h ****  *           //Wait till the transmission is finished.
 602:C:/Users/Mafish/Documents/GitHub/MAB_Controller/Dave/Generated/UART\uart.h ****  *           while(UART_0.runtime->tx_busy);
 603:C:/Users/Mafish/Documents/GitHub/MAB_Controller/Dave/Generated/UART\uart.h ****  *         }
 604:C:/Users/Mafish/Documents/GitHub/MAB_Controller/Dave/Generated/UART\uart.h ****  *       }
 605:C:/Users/Mafish/Documents/GitHub/MAB_Controller/Dave/Generated/UART\uart.h ****  *       while(1)
 606:C:/Users/Mafish/Documents/GitHub/MAB_Controller/Dave/Generated/UART\uart.h ****  *       {
 607:C:/Users/Mafish/Documents/GitHub/MAB_Controller/Dave/Generated/UART\uart.h ****  *       }
 608:C:/Users/Mafish/Documents/GitHub/MAB_Controller/Dave/Generated/UART\uart.h ****  *     }
 609:C:/Users/Mafish/Documents/GitHub/MAB_Controller/Dave/Generated/UART\uart.h ****  *     else
 610:C:/Users/Mafish/Documents/GitHub/MAB_Controller/Dave/Generated/UART\uart.h ****  *     {
 611:C:/Users/Mafish/Documents/GitHub/MAB_Controller/Dave/Generated/UART\uart.h ****  *      XMC_DEBUG("main: Application initialization failed");
 612:C:/Users/Mafish/Documents/GitHub/MAB_Controller/Dave/Generated/UART\uart.h ****  *      while(1U)
 613:C:/Users/Mafish/Documents/GitHub/MAB_Controller/Dave/Generated/UART\uart.h ****  *      {
 614:C:/Users/Mafish/Documents/GitHub/MAB_Controller/Dave/Generated/UART\uart.h ****  *      }
 615:C:/Users/Mafish/Documents/GitHub/MAB_Controller/Dave/Generated/UART\uart.h ****  *     }
 616:C:/Users/Mafish/Documents/GitHub/MAB_Controller/Dave/Generated/UART\uart.h ****  *      return 1U;
 617:C:/Users/Mafish/Documents/GitHub/MAB_Controller/Dave/Generated/UART\uart.h ****  *  }
 618:C:/Users/Mafish/Documents/GitHub/MAB_Controller/Dave/Generated/UART\uart.h ****  * @endcode
 619:C:/Users/Mafish/Documents/GitHub/MAB_Controller/Dave/Generated/UART\uart.h ****  *
 620:C:/Users/Mafish/Documents/GitHub/MAB_Controller/Dave/Generated/UART\uart.h ****  */
 621:C:/Users/Mafish/Documents/GitHub/MAB_Controller/Dave/Generated/UART\uart.h **** UART_STATUS_t UART_AbortTransmit(const UART_t *const handle);
 622:C:/Users/Mafish/Documents/GitHub/MAB_Controller/Dave/Generated/UART\uart.h **** #endif
 623:C:/Users/Mafish/Documents/GitHub/MAB_Controller/Dave/Generated/UART\uart.h **** 
 624:C:/Users/Mafish/Documents/GitHub/MAB_Controller/Dave/Generated/UART\uart.h **** #if (defined UART_RX_INTERRUPT_USED || defined UART_RX_DMA_USED)
 625:C:/Users/Mafish/Documents/GitHub/MAB_Controller/Dave/Generated/UART\uart.h **** /**
 626:C:/Users/Mafish/Documents/GitHub/MAB_Controller/Dave/Generated/UART\uart.h ****  * @brief Stops the active data reception sequence.
 627:C:/Users/Mafish/Documents/GitHub/MAB_Controller/Dave/Generated/UART\uart.h ****  * @param handle UART APP handle pointer of type @ref UART_t
 628:C:/Users/Mafish/Documents/GitHub/MAB_Controller/Dave/Generated/UART\uart.h ****  * @return UART_STATUS_t: Result of reception abort request.\n
 629:C:/Users/Mafish/Documents/GitHub/MAB_Controller/Dave/Generated/UART\uart.h ****  *                       @ref UART_STATUS_SUCCESS if the UART channel reception has
 630:C:/Users/Mafish/Documents/GitHub/MAB_Controller/Dave/Generated/UART\uart.h ****  *                       been stopped.\n
 631:C:/Users/Mafish/Documents/GitHub/MAB_Controller/Dave/Generated/UART\uart.h ****  *                       @ref UART_STATUS_MODE_MISMATCH if receive mode is Direct.\n
 632:C:/Users/Mafish/Documents/GitHub/MAB_Controller/Dave/Generated/UART\uart.h ****  *
 633:C:/Users/Mafish/Documents/GitHub/MAB_Controller/Dave/Generated/UART\uart.h ****  * \par<b>Description:</b><br>
 634:C:/Users/Mafish/Documents/GitHub/MAB_Controller/Dave/Generated/UART\uart.h ****  * If a reception is in progress, it will be stopped. When a reception request
 635:C:/Users/Mafish/Documents/GitHub/MAB_Controller/Dave/Generated/UART\uart.h ****  * is active, user will not be able to place a new receive request till the active
 636:C:/Users/Mafish/Documents/GitHub/MAB_Controller/Dave/Generated/UART\uart.h ****  * reception is complete. This API can stop the progressing reception to make
 637:C:/Users/Mafish/Documents/GitHub/MAB_Controller/Dave/Generated/UART\uart.h ****  * a new receive request. Abort request for receive mode direct cannot be serviced since
 638:C:/Users/Mafish/Documents/GitHub/MAB_Controller/Dave/Generated/UART\uart.h ****  * the direct mode receive API is a blocking call.
 639:C:/Users/Mafish/Documents/GitHub/MAB_Controller/Dave/Generated/UART\uart.h ****  *
 640:C:/Users/Mafish/Documents/GitHub/MAB_Controller/Dave/Generated/UART\uart.h ****  * Example Usage:
 641:C:/Users/Mafish/Documents/GitHub/MAB_Controller/Dave/Generated/UART\uart.h ****  * @code
 642:C:/Users/Mafish/Documents/GitHub/MAB_Controller/Dave/Generated/UART\uart.h ****  *   #include <DAVE.h>         //Declarations from DAVE Code Generation (includes SFR declaration)
 643:C:/Users/Mafish/Documents/GitHub/MAB_Controller/Dave/Generated/UART\uart.h ****  *
 644:C:/Users/Mafish/Documents/GitHub/MAB_Controller/Dave/Generated/UART\uart.h ****  *   //Pre-condition:
 645:C:/Users/Mafish/Documents/GitHub/MAB_Controller/Dave/Generated/UART\uart.h ****  *   //Transmit mode and receive mode should be configured as "Interrupt".
 646:C:/Users/Mafish/Documents/GitHub/MAB_Controller/Dave/Generated/UART\uart.h ****  *   //Description:
 647:C:/Users/Mafish/Documents/GitHub/MAB_Controller/Dave/Generated/UART\uart.h ****  *   //Transmits the string "Infineon DAVE application." and starts to receive data.
 648:C:/Users/Mafish/Documents/GitHub/MAB_Controller/Dave/Generated/UART\uart.h ****  *   //After receiving first byte, checks the value of first byte. If the first byte is 0x55,
 649:C:/Users/Mafish/Documents/GitHub/MAB_Controller/Dave/Generated/UART\uart.h ****  *   //aborts the ongoing reception and transmits the received byte.
 650:C:/Users/Mafish/Documents/GitHub/MAB_Controller/Dave/Generated/UART\uart.h ****  *
 651:C:/Users/Mafish/Documents/GitHub/MAB_Controller/Dave/Generated/UART\uart.h ****  *   int main(void)
 652:C:/Users/Mafish/Documents/GitHub/MAB_Controller/Dave/Generated/UART\uart.h ****  *   {
 653:C:/Users/Mafish/Documents/GitHub/MAB_Controller/Dave/Generated/UART\uart.h ****  *     UART_STATUS_t init_status;
 654:C:/Users/Mafish/Documents/GitHub/MAB_Controller/Dave/Generated/UART\uart.h ****  *     uint8_t Send_Data[] = "Infineon DAVE application.";
 655:C:/Users/Mafish/Documents/GitHub/MAB_Controller/Dave/Generated/UART\uart.h ****  *     uint8_t Rec_Data[64];
 656:C:/Users/Mafish/Documents/GitHub/MAB_Controller/Dave/Generated/UART\uart.h ****  *
 657:C:/Users/Mafish/Documents/GitHub/MAB_Controller/Dave/Generated/UART\uart.h ****  *     init_status = (UART_STATUS_t)UART_Init(&UART_0);
 658:C:/Users/Mafish/Documents/GitHub/MAB_Controller/Dave/Generated/UART\uart.h ****  *     if(init_status == UART_STATUS_SUCCESS)
 659:C:/Users/Mafish/Documents/GitHub/MAB_Controller/Dave/Generated/UART\uart.h ****  *     {
 660:C:/Users/Mafish/Documents/GitHub/MAB_Controller/Dave/Generated/UART\uart.h ****  *       //Transmit the initial string.
 661:C:/Users/Mafish/Documents/GitHub/MAB_Controller/Dave/Generated/UART\uart.h ****  *       UART_Transmit(&UART_0, Send_Data, sizeof(Send_Data));
 662:C:/Users/Mafish/Documents/GitHub/MAB_Controller/Dave/Generated/UART\uart.h ****  *       //Wait till the string is transmitted.
 663:C:/Users/Mafish/Documents/GitHub/MAB_Controller/Dave/Generated/UART\uart.h ****  *       while(UART_0.runtime->tx_busy);
 664:C:/Users/Mafish/Documents/GitHub/MAB_Controller/Dave/Generated/UART\uart.h ****  *
 665:C:/Users/Mafish/Documents/GitHub/MAB_Controller/Dave/Generated/UART\uart.h ****  *       //Start reception of data
 666:C:/Users/Mafish/Documents/GitHub/MAB_Controller/Dave/Generated/UART\uart.h ****  *       UART_Receive(&UART_0, Rec_Data, 15);
 667:C:/Users/Mafish/Documents/GitHub/MAB_Controller/Dave/Generated/UART\uart.h ****  *       //Wait till atleast one byte is received.
 668:C:/Users/Mafish/Documents/GitHub/MAB_Controller/Dave/Generated/UART\uart.h ****  *       while(UART_0.runtime->rx_data_index == 0);
 669:C:/Users/Mafish/Documents/GitHub/MAB_Controller/Dave/Generated/UART\uart.h ****  *       //If the first byte is 0x55,
 670:C:/Users/Mafish/Documents/GitHub/MAB_Controller/Dave/Generated/UART\uart.h ****  *       if(UART_0.runtime->rx_data[0] == 0x55)
 671:C:/Users/Mafish/Documents/GitHub/MAB_Controller/Dave/Generated/UART\uart.h ****  *       {
 672:C:/Users/Mafish/Documents/GitHub/MAB_Controller/Dave/Generated/UART\uart.h ****  *         //Stop the reception
 673:C:/Users/Mafish/Documents/GitHub/MAB_Controller/Dave/Generated/UART\uart.h ****  *         if(UART_AbortReceive(&UART_0) == UART_STATUS_SUCCESS)
 674:C:/Users/Mafish/Documents/GitHub/MAB_Controller/Dave/Generated/UART\uart.h ****  *         {
 675:C:/Users/Mafish/Documents/GitHub/MAB_Controller/Dave/Generated/UART\uart.h ****  *           //Transmit the received one byte.
 676:C:/Users/Mafish/Documents/GitHub/MAB_Controller/Dave/Generated/UART\uart.h ****  *           UART_Transmit(&UART_0, Rec_Data, 1);
 677:C:/Users/Mafish/Documents/GitHub/MAB_Controller/Dave/Generated/UART\uart.h ****  *         }
 678:C:/Users/Mafish/Documents/GitHub/MAB_Controller/Dave/Generated/UART\uart.h ****  *       }
 679:C:/Users/Mafish/Documents/GitHub/MAB_Controller/Dave/Generated/UART\uart.h ****  *     }
 680:C:/Users/Mafish/Documents/GitHub/MAB_Controller/Dave/Generated/UART\uart.h ****  *     else
 681:C:/Users/Mafish/Documents/GitHub/MAB_Controller/Dave/Generated/UART\uart.h ****  *     {
 682:C:/Users/Mafish/Documents/GitHub/MAB_Controller/Dave/Generated/UART\uart.h ****  *      XMC_DEBUG("main: Application initialization failed");
 683:C:/Users/Mafish/Documents/GitHub/MAB_Controller/Dave/Generated/UART\uart.h ****  *      while(1U)
 684:C:/Users/Mafish/Documents/GitHub/MAB_Controller/Dave/Generated/UART\uart.h ****  *      {
 685:C:/Users/Mafish/Documents/GitHub/MAB_Controller/Dave/Generated/UART\uart.h ****  *      }
 686:C:/Users/Mafish/Documents/GitHub/MAB_Controller/Dave/Generated/UART\uart.h ****  *     }
 687:C:/Users/Mafish/Documents/GitHub/MAB_Controller/Dave/Generated/UART\uart.h ****  *      return 1U;
 688:C:/Users/Mafish/Documents/GitHub/MAB_Controller/Dave/Generated/UART\uart.h ****  *  }
 689:C:/Users/Mafish/Documents/GitHub/MAB_Controller/Dave/Generated/UART\uart.h ****  * @endcode
 690:C:/Users/Mafish/Documents/GitHub/MAB_Controller/Dave/Generated/UART\uart.h ****  *
 691:C:/Users/Mafish/Documents/GitHub/MAB_Controller/Dave/Generated/UART\uart.h ****  */
 692:C:/Users/Mafish/Documents/GitHub/MAB_Controller/Dave/Generated/UART\uart.h **** UART_STATUS_t UART_AbortReceive(const UART_t *const handle);
 693:C:/Users/Mafish/Documents/GitHub/MAB_Controller/Dave/Generated/UART\uart.h **** #endif
 694:C:/Users/Mafish/Documents/GitHub/MAB_Controller/Dave/Generated/UART\uart.h **** 
 695:C:/Users/Mafish/Documents/GitHub/MAB_Controller/Dave/Generated/UART\uart.h **** #ifdef UART_RX_INTERRUPT_USED
 696:C:/Users/Mafish/Documents/GitHub/MAB_Controller/Dave/Generated/UART\uart.h **** /**
 697:C:/Users/Mafish/Documents/GitHub/MAB_Controller/Dave/Generated/UART\uart.h ****  * @brief Registers a request for receiving data over UART channel.
 698:C:/Users/Mafish/Documents/GitHub/MAB_Controller/Dave/Generated/UART\uart.h ****  *
 699:C:/Users/Mafish/Documents/GitHub/MAB_Controller/Dave/Generated/UART\uart.h ****  *
 700:C:/Users/Mafish/Documents/GitHub/MAB_Controller/Dave/Generated/UART\uart.h ****  * @param  handle  Pointer to UART_t handle structure
 701:C:/Users/Mafish/Documents/GitHub/MAB_Controller/Dave/Generated/UART\uart.h ****  * @param data_ptr  Pointer to data of type uint8_t.
 702:C:/Users/Mafish/Documents/GitHub/MAB_Controller/Dave/Generated/UART\uart.h ****  * @param  count  Total no of bytes to be received.\n
 703:C:/Users/Mafish/Documents/GitHub/MAB_Controller/Dave/Generated/UART\uart.h ****  *                \b Range: minimum= 1, maximum= maximum value supported by type uint32_t.
 704:C:/Users/Mafish/Documents/GitHub/MAB_Controller/Dave/Generated/UART\uart.h ****  *
 705:C:/Users/Mafish/Documents/GitHub/MAB_Controller/Dave/Generated/UART\uart.h ****  * @return  UART_STATUS_t: Status for receive request.\n
 706:C:/Users/Mafish/Documents/GitHub/MAB_Controller/Dave/Generated/UART\uart.h ****  *                        @ref UART_STATUS_SUCCESS if the request is accepted.\n
 707:C:/Users/Mafish/Documents/GitHub/MAB_Controller/Dave/Generated/UART\uart.h ****  *                        @ref UART_STATUS_BUSY if a reception is in progress.\n
 708:C:/Users/Mafish/Documents/GitHub/MAB_Controller/Dave/Generated/UART\uart.h ****  *                        @ref UART_STATUS_BUFFER_INVALID if the data_ptr is NULL or count is 0. \n
 709:C:/Users/Mafish/Documents/GitHub/MAB_Controller/Dave/Generated/UART\uart.h ****  *
 710:C:/Users/Mafish/Documents/GitHub/MAB_Controller/Dave/Generated/UART\uart.h ****  *
 711:C:/Users/Mafish/Documents/GitHub/MAB_Controller/Dave/Generated/UART\uart.h ****  * \par<b>Description:</b><br>
 712:C:/Users/Mafish/Documents/GitHub/MAB_Controller/Dave/Generated/UART\uart.h ****  * Data will be received asynchronously. When the requested number of data bytes are received,
 713:C:/Users/Mafish/Documents/GitHub/MAB_Controller/Dave/Generated/UART\uart.h ****  * optionally, the user configured callback function will be executed.
 714:C:/Users/Mafish/Documents/GitHub/MAB_Controller/Dave/Generated/UART\uart.h ****  * Based on the UI configuration, either standard receive buffer or receive FIFO is used
 715:C:/Users/Mafish/Documents/GitHub/MAB_Controller/Dave/Generated/UART\uart.h ****  * for data reception. An interrupt is configured for reading received data from the bus. This func
 716:C:/Users/Mafish/Documents/GitHub/MAB_Controller/Dave/Generated/UART\uart.h ****  * only registers a request to receive a number of data bytes from a USIC channel. If FIFO is
 717:C:/Users/Mafish/Documents/GitHub/MAB_Controller/Dave/Generated/UART\uart.h ****  * configured for reception, the FIFO limit is dynamically configured to optimally utilize the
 718:C:/Users/Mafish/Documents/GitHub/MAB_Controller/Dave/Generated/UART\uart.h ****  * CPU load.  When all the requested number of data bytes are received, the configured callback
 719:C:/Users/Mafish/Documents/GitHub/MAB_Controller/Dave/Generated/UART\uart.h ****  * function will be executed.
 720:C:/Users/Mafish/Documents/GitHub/MAB_Controller/Dave/Generated/UART\uart.h ****  * If a callback function is not configured, the user has to poll for the value of the
 721:C:/Users/Mafish/Documents/GitHub/MAB_Controller/Dave/Generated/UART\uart.h ****  * variable, \a handle->runtime->rx_busy to be false. The value is updated to \a false when all the
 722:C:/Users/Mafish/Documents/GitHub/MAB_Controller/Dave/Generated/UART\uart.h ****  * requested number of data bytes are received.
 723:C:/Users/Mafish/Documents/GitHub/MAB_Controller/Dave/Generated/UART\uart.h ****  *
 724:C:/Users/Mafish/Documents/GitHub/MAB_Controller/Dave/Generated/UART\uart.h ****  * Example Usage:
 725:C:/Users/Mafish/Documents/GitHub/MAB_Controller/Dave/Generated/UART\uart.h ****  * @code
 726:C:/Users/Mafish/Documents/GitHub/MAB_Controller/Dave/Generated/UART\uart.h ****  *   #include <DAVE.h>         //Declarations from DAVE Code Generation (includes SFR declaration)
 727:C:/Users/Mafish/Documents/GitHub/MAB_Controller/Dave/Generated/UART\uart.h ****  *
 728:C:/Users/Mafish/Documents/GitHub/MAB_Controller/Dave/Generated/UART\uart.h ****  *   //Pre-condition:
 729:C:/Users/Mafish/Documents/GitHub/MAB_Controller/Dave/Generated/UART\uart.h ****  *   //Transmit mode and receive mode should be configured as "Interrupt".
 730:C:/Users/Mafish/Documents/GitHub/MAB_Controller/Dave/Generated/UART\uart.h ****  *   //Description:
 731:C:/Users/Mafish/Documents/GitHub/MAB_Controller/Dave/Generated/UART\uart.h ****  *   //Receives 10 bytes of data and transmits the same.
 732:C:/Users/Mafish/Documents/GitHub/MAB_Controller/Dave/Generated/UART\uart.h ****  *
 733:C:/Users/Mafish/Documents/GitHub/MAB_Controller/Dave/Generated/UART\uart.h ****  *   int main(void)
 734:C:/Users/Mafish/Documents/GitHub/MAB_Controller/Dave/Generated/UART\uart.h ****  *   {
 735:C:/Users/Mafish/Documents/GitHub/MAB_Controller/Dave/Generated/UART\uart.h ****  *     UART_STATUS_t init_status;
 736:C:/Users/Mafish/Documents/GitHub/MAB_Controller/Dave/Generated/UART\uart.h ****  *     uint8_t ReadData[10];
 737:C:/Users/Mafish/Documents/GitHub/MAB_Controller/Dave/Generated/UART\uart.h ****  *
 738:C:/Users/Mafish/Documents/GitHub/MAB_Controller/Dave/Generated/UART\uart.h ****  *     init_status = (UART_STATUS_t)UART_Init(&UART_0);
 739:C:/Users/Mafish/Documents/GitHub/MAB_Controller/Dave/Generated/UART\uart.h ****  *     if(init_status == UART_STATUS_SUCCESS)
 740:C:/Users/Mafish/Documents/GitHub/MAB_Controller/Dave/Generated/UART\uart.h ****  *     {
 741:C:/Users/Mafish/Documents/GitHub/MAB_Controller/Dave/Generated/UART\uart.h ****  *       while(1)
 742:C:/Users/Mafish/Documents/GitHub/MAB_Controller/Dave/Generated/UART\uart.h ****  *       {
 743:C:/Users/Mafish/Documents/GitHub/MAB_Controller/Dave/Generated/UART\uart.h ****  *       //Start reception of 10 bytes. The status will be returned success, if the channel is not 
 744:C:/Users/Mafish/Documents/GitHub/MAB_Controller/Dave/Generated/UART\uart.h ****  *       if(UART_StartReceiveIRQ(&UART_0, ReadData, 10) == UART_STATUS_SUCCESS)
 745:C:/Users/Mafish/Documents/GitHub/MAB_Controller/Dave/Generated/UART\uart.h ****  *       {
 746:C:/Users/Mafish/Documents/GitHub/MAB_Controller/Dave/Generated/UART\uart.h ****  *         //Wait till the data is received.
 747:C:/Users/Mafish/Documents/GitHub/MAB_Controller/Dave/Generated/UART\uart.h ****  *         while(UART_0.runtime->rx_busy)
 748:C:/Users/Mafish/Documents/GitHub/MAB_Controller/Dave/Generated/UART\uart.h ****  *         {
 749:C:/Users/Mafish/Documents/GitHub/MAB_Controller/Dave/Generated/UART\uart.h ****  *         }
 750:C:/Users/Mafish/Documents/GitHub/MAB_Controller/Dave/Generated/UART\uart.h ****  *         //Transmit the received data.
 751:C:/Users/Mafish/Documents/GitHub/MAB_Controller/Dave/Generated/UART\uart.h ****  *         UART_Transmit(&UART_0, ReadData, 10);
 752:C:/Users/Mafish/Documents/GitHub/MAB_Controller/Dave/Generated/UART\uart.h ****  *         while(UART_0.runtime->tx_busy)
 753:C:/Users/Mafish/Documents/GitHub/MAB_Controller/Dave/Generated/UART\uart.h ****  *         {
 754:C:/Users/Mafish/Documents/GitHub/MAB_Controller/Dave/Generated/UART\uart.h ****  *         }
 755:C:/Users/Mafish/Documents/GitHub/MAB_Controller/Dave/Generated/UART\uart.h ****  *       }
 756:C:/Users/Mafish/Documents/GitHub/MAB_Controller/Dave/Generated/UART\uart.h ****  *       }
 757:C:/Users/Mafish/Documents/GitHub/MAB_Controller/Dave/Generated/UART\uart.h ****  *     }
 758:C:/Users/Mafish/Documents/GitHub/MAB_Controller/Dave/Generated/UART\uart.h ****  *     else
 759:C:/Users/Mafish/Documents/GitHub/MAB_Controller/Dave/Generated/UART\uart.h ****  *     {
 760:C:/Users/Mafish/Documents/GitHub/MAB_Controller/Dave/Generated/UART\uart.h ****  *      XMC_DEBUG("main: Application initialization failed");
 761:C:/Users/Mafish/Documents/GitHub/MAB_Controller/Dave/Generated/UART\uart.h ****  *      while(1U)
 762:C:/Users/Mafish/Documents/GitHub/MAB_Controller/Dave/Generated/UART\uart.h ****  *      {
 763:C:/Users/Mafish/Documents/GitHub/MAB_Controller/Dave/Generated/UART\uart.h ****  *      }
 764:C:/Users/Mafish/Documents/GitHub/MAB_Controller/Dave/Generated/UART\uart.h ****  *     }
 765:C:/Users/Mafish/Documents/GitHub/MAB_Controller/Dave/Generated/UART\uart.h ****  *      return 1U;
 766:C:/Users/Mafish/Documents/GitHub/MAB_Controller/Dave/Generated/UART\uart.h ****  *  }
 767:C:/Users/Mafish/Documents/GitHub/MAB_Controller/Dave/Generated/UART\uart.h ****  *  @endcode
 768:C:/Users/Mafish/Documents/GitHub/MAB_Controller/Dave/Generated/UART\uart.h ****  *
 769:C:/Users/Mafish/Documents/GitHub/MAB_Controller/Dave/Generated/UART\uart.h ****  */
 770:C:/Users/Mafish/Documents/GitHub/MAB_Controller/Dave/Generated/UART\uart.h **** UART_STATUS_t UART_StartReceiveIRQ(const UART_t *const handle, uint8_t* data_ptr, uint32_t count);
 771:C:/Users/Mafish/Documents/GitHub/MAB_Controller/Dave/Generated/UART\uart.h **** #endif
 772:C:/Users/Mafish/Documents/GitHub/MAB_Controller/Dave/Generated/UART\uart.h **** 
 773:C:/Users/Mafish/Documents/GitHub/MAB_Controller/Dave/Generated/UART\uart.h **** #ifdef UART_TX_INTERRUPT_USED
 774:C:/Users/Mafish/Documents/GitHub/MAB_Controller/Dave/Generated/UART\uart.h **** /**
 775:C:/Users/Mafish/Documents/GitHub/MAB_Controller/Dave/Generated/UART\uart.h ****  * @brief Registers a request for transmitting data over UART channel.
 776:C:/Users/Mafish/Documents/GitHub/MAB_Controller/Dave/Generated/UART\uart.h ****  *
 777:C:/Users/Mafish/Documents/GitHub/MAB_Controller/Dave/Generated/UART\uart.h ****  * @param  handle  UART APP handle pointer of type @ref UART_t
 778:C:/Users/Mafish/Documents/GitHub/MAB_Controller/Dave/Generated/UART\uart.h ****  * @param  data_ptr Pointer to data of type uint8_t.
 779:C:/Users/Mafish/Documents/GitHub/MAB_Controller/Dave/Generated/UART\uart.h ****  * @param  count Total no of words to be transmitted.\n
 780:C:/Users/Mafish/Documents/GitHub/MAB_Controller/Dave/Generated/UART\uart.h ****  * \b Range: minimum= 1, maximum= maximum supported by uint32_t.
 781:C:/Users/Mafish/Documents/GitHub/MAB_Controller/Dave/Generated/UART\uart.h ****  *
 782:C:/Users/Mafish/Documents/GitHub/MAB_Controller/Dave/Generated/UART\uart.h ****  * @return  UART_STATUS_t: Status of transmit request.\n
 783:C:/Users/Mafish/Documents/GitHub/MAB_Controller/Dave/Generated/UART\uart.h ****  *                        @ref UART_STATUS_SUCCESS if the request is accepted.\n
 784:C:/Users/Mafish/Documents/GitHub/MAB_Controller/Dave/Generated/UART\uart.h ****  *                        @ref UART_STATUS_BUSY if a transmission is in progress.\n
 785:C:/Users/Mafish/Documents/GitHub/MAB_Controller/Dave/Generated/UART\uart.h ****  *                        @ref UART_STATUS_BUFFER_INVALID if the data_ptr is NULL or count is 0.\n
 786:C:/Users/Mafish/Documents/GitHub/MAB_Controller/Dave/Generated/UART\uart.h ****  *
 787:C:/Users/Mafish/Documents/GitHub/MAB_Controller/Dave/Generated/UART\uart.h ****  * <i>Imp Note:</i> Return value should be validated by user to ensure that the
 788:C:/Users/Mafish/Documents/GitHub/MAB_Controller/Dave/Generated/UART\uart.h ****  * request is registered.
 789:C:/Users/Mafish/Documents/GitHub/MAB_Controller/Dave/Generated/UART\uart.h ****  *
 790:C:/Users/Mafish/Documents/GitHub/MAB_Controller/Dave/Generated/UART\uart.h ****  * \par<b>Description:</b><br>
 791:C:/Users/Mafish/Documents/GitHub/MAB_Controller/Dave/Generated/UART\uart.h ****  * The data transmission is accomplished using transmit interrupt. User can configure
 792:C:/Users/Mafish/Documents/GitHub/MAB_Controller/Dave/Generated/UART\uart.h ****  * a callback function in the APP UI. When the data is fully transmitted, the callback
 793:C:/Users/Mafish/Documents/GitHub/MAB_Controller/Dave/Generated/UART\uart.h ****  * function will be executed. If transmit FIFO is enabled, the trigger limit is set to 1.
 794:C:/Users/Mafish/Documents/GitHub/MAB_Controller/Dave/Generated/UART\uart.h ****  * So the transmit interrupt will be generated when all the data in FIFO is moved from FIFO.
 795:C:/Users/Mafish/Documents/GitHub/MAB_Controller/Dave/Generated/UART\uart.h ****  * The function uses APP handle's runtime structure to store the data pointer, count, data index
 796:C:/Users/Mafish/Documents/GitHub/MAB_Controller/Dave/Generated/UART\uart.h ****  * and status of transmission. This function only registers a data transmission request if
 797:C:/Users/Mafish/Documents/GitHub/MAB_Controller/Dave/Generated/UART\uart.h ****  * there is no active transmission in progress. Actual data transmission happens in the transmit
 798:C:/Users/Mafish/Documents/GitHub/MAB_Controller/Dave/Generated/UART\uart.h ****  * interrupt service routine. A trigger is generated for the transmit interrupt to start loading
 799:C:/Users/Mafish/Documents/GitHub/MAB_Controller/Dave/Generated/UART\uart.h ****  * the data. If transmit FIFO is configured, the data is filled into the FIFO.
 800:C:/Users/Mafish/Documents/GitHub/MAB_Controller/Dave/Generated/UART\uart.h ****  * Transmit interrupt will be generated next time when the transmit FIFO is empty. At this
 801:C:/Users/Mafish/Documents/GitHub/MAB_Controller/Dave/Generated/UART\uart.h ****  * point of time, if there is some more data to be transmitted, it is loaded to the FIFO again.
 802:C:/Users/Mafish/Documents/GitHub/MAB_Controller/Dave/Generated/UART\uart.h ****  * When FIFO is not enabled, data is transmitted one byte at a time. On transmission of each byte
 803:C:/Users/Mafish/Documents/GitHub/MAB_Controller/Dave/Generated/UART\uart.h ****  * an interrupt is generated and the next byte is transmitted in the interrupt service routine.
 804:C:/Users/Mafish/Documents/GitHub/MAB_Controller/Dave/Generated/UART\uart.h ****  * Callback function is executed when all the data bytes are transmitted.
 805:C:/Users/Mafish/Documents/GitHub/MAB_Controller/Dave/Generated/UART\uart.h ****  * If a callback function is not configured, user has to poll for the value of \a tx_busy flag of
 806:C:/Users/Mafish/Documents/GitHub/MAB_Controller/Dave/Generated/UART\uart.h ****  * the APP handle structure( \a handle->runtime->tx_busy ) to check for
 807:C:/Users/Mafish/Documents/GitHub/MAB_Controller/Dave/Generated/UART\uart.h ****  * the completion of data transmission.
 808:C:/Users/Mafish/Documents/GitHub/MAB_Controller/Dave/Generated/UART\uart.h ****  *
 809:C:/Users/Mafish/Documents/GitHub/MAB_Controller/Dave/Generated/UART\uart.h ****  * Example Usage:
 810:C:/Users/Mafish/Documents/GitHub/MAB_Controller/Dave/Generated/UART\uart.h ****  * @code
 811:C:/Users/Mafish/Documents/GitHub/MAB_Controller/Dave/Generated/UART\uart.h ****  *   #include <DAVE.h>         //Declarations from DAVE Code Generation (includes SFR declaration)
 812:C:/Users/Mafish/Documents/GitHub/MAB_Controller/Dave/Generated/UART\uart.h ****  *
 813:C:/Users/Mafish/Documents/GitHub/MAB_Controller/Dave/Generated/UART\uart.h ****  *   //Pre-condition:
 814:C:/Users/Mafish/Documents/GitHub/MAB_Controller/Dave/Generated/UART\uart.h ****  *   //Transmit mode should be configured as "Interrupt".
 815:C:/Users/Mafish/Documents/GitHub/MAB_Controller/Dave/Generated/UART\uart.h ****  *   //Description:
 816:C:/Users/Mafish/Documents/GitHub/MAB_Controller/Dave/Generated/UART\uart.h ****  *   //Transmits the string "Infineon"
 817:C:/Users/Mafish/Documents/GitHub/MAB_Controller/Dave/Generated/UART\uart.h ****  *
 818:C:/Users/Mafish/Documents/GitHub/MAB_Controller/Dave/Generated/UART\uart.h ****  *   int main(void)
 819:C:/Users/Mafish/Documents/GitHub/MAB_Controller/Dave/Generated/UART\uart.h ****  *   {
 820:C:/Users/Mafish/Documents/GitHub/MAB_Controller/Dave/Generated/UART\uart.h ****  *     UART_STATUS_t init_status;
 821:C:/Users/Mafish/Documents/GitHub/MAB_Controller/Dave/Generated/UART\uart.h ****  *     uint8_t Send_Data[] = "Infineon";
 822:C:/Users/Mafish/Documents/GitHub/MAB_Controller/Dave/Generated/UART\uart.h ****  *
 823:C:/Users/Mafish/Documents/GitHub/MAB_Controller/Dave/Generated/UART\uart.h ****  *     init_status = (UART_STATUS_t)UART_Init(&UART_0);
 824:C:/Users/Mafish/Documents/GitHub/MAB_Controller/Dave/Generated/UART\uart.h ****  *     if(init_status == UART_STATUS_SUCCESS)
 825:C:/Users/Mafish/Documents/GitHub/MAB_Controller/Dave/Generated/UART\uart.h ****  *     {
 826:C:/Users/Mafish/Documents/GitHub/MAB_Controller/Dave/Generated/UART\uart.h ****  *       if(UART_StartTransmitIRQ(&UART_0, Send_Data, sizeof(Send_Data)) == UART_STATUS_SUCCESS)
 827:C:/Users/Mafish/Documents/GitHub/MAB_Controller/Dave/Generated/UART\uart.h ****  *       {
 828:C:/Users/Mafish/Documents/GitHub/MAB_Controller/Dave/Generated/UART\uart.h ****  *         //Wait till the data transmission is ongoing.
 829:C:/Users/Mafish/Documents/GitHub/MAB_Controller/Dave/Generated/UART\uart.h ****  *         while(UART_0.runtime->tx_busy)
 830:C:/Users/Mafish/Documents/GitHub/MAB_Controller/Dave/Generated/UART\uart.h ****  *         {
 831:C:/Users/Mafish/Documents/GitHub/MAB_Controller/Dave/Generated/UART\uart.h ****  *         }
 832:C:/Users/Mafish/Documents/GitHub/MAB_Controller/Dave/Generated/UART\uart.h ****  *       }
 833:C:/Users/Mafish/Documents/GitHub/MAB_Controller/Dave/Generated/UART\uart.h ****  *     }
 834:C:/Users/Mafish/Documents/GitHub/MAB_Controller/Dave/Generated/UART\uart.h ****  *     else
 835:C:/Users/Mafish/Documents/GitHub/MAB_Controller/Dave/Generated/UART\uart.h ****  *     {
 836:C:/Users/Mafish/Documents/GitHub/MAB_Controller/Dave/Generated/UART\uart.h ****  *      XMC_DEBUG("main: Application initialization failed");
 837:C:/Users/Mafish/Documents/GitHub/MAB_Controller/Dave/Generated/UART\uart.h ****  *      while(1U)
 838:C:/Users/Mafish/Documents/GitHub/MAB_Controller/Dave/Generated/UART\uart.h ****  *      {
 839:C:/Users/Mafish/Documents/GitHub/MAB_Controller/Dave/Generated/UART\uart.h ****  *      }
 840:C:/Users/Mafish/Documents/GitHub/MAB_Controller/Dave/Generated/UART\uart.h ****  *     }
 841:C:/Users/Mafish/Documents/GitHub/MAB_Controller/Dave/Generated/UART\uart.h ****  *      return 1U;
 842:C:/Users/Mafish/Documents/GitHub/MAB_Controller/Dave/Generated/UART\uart.h ****  *  }
 843:C:/Users/Mafish/Documents/GitHub/MAB_Controller/Dave/Generated/UART\uart.h ****  * @endcode
 844:C:/Users/Mafish/Documents/GitHub/MAB_Controller/Dave/Generated/UART\uart.h ****  *
 845:C:/Users/Mafish/Documents/GitHub/MAB_Controller/Dave/Generated/UART\uart.h ****  */
 846:C:/Users/Mafish/Documents/GitHub/MAB_Controller/Dave/Generated/UART\uart.h **** UART_STATUS_t UART_StartTransmitIRQ(const UART_t *const handle, uint8_t* data_ptr, uint32_t count);
 847:C:/Users/Mafish/Documents/GitHub/MAB_Controller/Dave/Generated/UART\uart.h **** #endif
 848:C:/Users/Mafish/Documents/GitHub/MAB_Controller/Dave/Generated/UART\uart.h **** 
 849:C:/Users/Mafish/Documents/GitHub/MAB_Controller/Dave/Generated/UART\uart.h **** #ifdef UART_TX_DMA_USED
 850:C:/Users/Mafish/Documents/GitHub/MAB_Controller/Dave/Generated/UART\uart.h **** /**
 851:C:/Users/Mafish/Documents/GitHub/MAB_Controller/Dave/Generated/UART\uart.h ****  * @brief Registers a request for transmitting data over UART channel using DMA.
 852:C:/Users/Mafish/Documents/GitHub/MAB_Controller/Dave/Generated/UART\uart.h ****  *
 853:C:/Users/Mafish/Documents/GitHub/MAB_Controller/Dave/Generated/UART\uart.h ****  * @param  handle  UART APP handle pointer of type @ref UART_t
 854:C:/Users/Mafish/Documents/GitHub/MAB_Controller/Dave/Generated/UART\uart.h ****  * @param  data_ptr Pointer to data of type uint8_t.
 855:C:/Users/Mafish/Documents/GitHub/MAB_Controller/Dave/Generated/UART\uart.h ****  * @param  count Total number of words to be transmitted.\n
 856:C:/Users/Mafish/Documents/GitHub/MAB_Controller/Dave/Generated/UART\uart.h ****  * \b Range: minimum= 1, maximum= 4096.
 857:C:/Users/Mafish/Documents/GitHub/MAB_Controller/Dave/Generated/UART\uart.h ****  *
 858:C:/Users/Mafish/Documents/GitHub/MAB_Controller/Dave/Generated/UART\uart.h ****  * @return  UART_STATUS_t: Status of transmit request.\n
 859:C:/Users/Mafish/Documents/GitHub/MAB_Controller/Dave/Generated/UART\uart.h ****  *                        @ref UART_STATUS_SUCCESS if the request is accepted.\n
 860:C:/Users/Mafish/Documents/GitHub/MAB_Controller/Dave/Generated/UART\uart.h ****  *                        @ref UART_STATUS_BUSY if a transmission is in progress.\n
 861:C:/Users/Mafish/Documents/GitHub/MAB_Controller/Dave/Generated/UART\uart.h ****  *                        @ref UART_STATUS_MODE_MISMATCH if the handle is not configured for
 862:C:/Users/Mafish/Documents/GitHub/MAB_Controller/Dave/Generated/UART\uart.h ****  *                        DMA transmit mode. \n
 863:C:/Users/Mafish/Documents/GitHub/MAB_Controller/Dave/Generated/UART\uart.h ****  *                        @ref UART_STATUS_BUFFER_INVALID if the data_ptr is NULL or count is 0. \n
 864:C:/Users/Mafish/Documents/GitHub/MAB_Controller/Dave/Generated/UART\uart.h ****  *
 865:C:/Users/Mafish/Documents/GitHub/MAB_Controller/Dave/Generated/UART\uart.h ****  * <i>Imp Note:</i> Return value should be validated by user to ensure that the
 866:C:/Users/Mafish/Documents/GitHub/MAB_Controller/Dave/Generated/UART\uart.h ****  * request is registered.
 867:C:/Users/Mafish/Documents/GitHub/MAB_Controller/Dave/Generated/UART\uart.h ****  *
 868:C:/Users/Mafish/Documents/GitHub/MAB_Controller/Dave/Generated/UART\uart.h ****  * \par<b>Description:</b><br>
 869:C:/Users/Mafish/Documents/GitHub/MAB_Controller/Dave/Generated/UART\uart.h ****  * The data transmission is accomplished using DMA. User can configure
 870:C:/Users/Mafish/Documents/GitHub/MAB_Controller/Dave/Generated/UART\uart.h ****  * a callback function in the APP UI. When the data is fully transmitted, the callback
 871:C:/Users/Mafish/Documents/GitHub/MAB_Controller/Dave/Generated/UART\uart.h ****  * function will be executed.
 872:C:/Users/Mafish/Documents/GitHub/MAB_Controller/Dave/Generated/UART\uart.h ****  * The function uses APP handle's runtime structure to store the status of transmission.
 873:C:/Users/Mafish/Documents/GitHub/MAB_Controller/Dave/Generated/UART\uart.h ****  * This function only registers a data transmission request, if
 874:C:/Users/Mafish/Documents/GitHub/MAB_Controller/Dave/Generated/UART\uart.h ****  * there is no active transmission in progress. Actual data transmission happens through DMA channe
 875:C:/Users/Mafish/Documents/GitHub/MAB_Controller/Dave/Generated/UART\uart.h ****  * A maximum of 4096 bytes can be transmitted in one API call. This limit is because of the DMA sin
 876:C:/Users/Mafish/Documents/GitHub/MAB_Controller/Dave/Generated/UART\uart.h ****  * Callback function is executed when all the data bytes are transmitted.
 877:C:/Users/Mafish/Documents/GitHub/MAB_Controller/Dave/Generated/UART\uart.h ****  * If a callback function is not configured, user has to poll for the value of \a tx_busy flag of
 878:C:/Users/Mafish/Documents/GitHub/MAB_Controller/Dave/Generated/UART\uart.h ****  * the APP handle structure( \a handle->runtime->tx_busy ) to check for
 879:C:/Users/Mafish/Documents/GitHub/MAB_Controller/Dave/Generated/UART\uart.h ****  * the completion of data transmission.
 880:C:/Users/Mafish/Documents/GitHub/MAB_Controller/Dave/Generated/UART\uart.h ****  * If data more than the block size of 4096 have to be transmitted, user will have to transmit them
 881:C:/Users/Mafish/Documents/GitHub/MAB_Controller/Dave/Generated/UART\uart.h ****  *
 882:C:/Users/Mafish/Documents/GitHub/MAB_Controller/Dave/Generated/UART\uart.h ****  * Example Usage:
 883:C:/Users/Mafish/Documents/GitHub/MAB_Controller/Dave/Generated/UART\uart.h ****  * @code
 884:C:/Users/Mafish/Documents/GitHub/MAB_Controller/Dave/Generated/UART\uart.h ****  *   #include <DAVE.h>         //Declarations from DAVE Code Generation (includes SFR declaration)
 885:C:/Users/Mafish/Documents/GitHub/MAB_Controller/Dave/Generated/UART\uart.h ****  *
 886:C:/Users/Mafish/Documents/GitHub/MAB_Controller/Dave/Generated/UART\uart.h ****  *   //Pre-condition:
 887:C:/Users/Mafish/Documents/GitHub/MAB_Controller/Dave/Generated/UART\uart.h ****  *   //Transmit mode should be configured as "DMA".
 888:C:/Users/Mafish/Documents/GitHub/MAB_Controller/Dave/Generated/UART\uart.h ****  *   //Description:
 889:C:/Users/Mafish/Documents/GitHub/MAB_Controller/Dave/Generated/UART\uart.h ****  *   //Transmits the string "Infineon" using DMA.
 890:C:/Users/Mafish/Documents/GitHub/MAB_Controller/Dave/Generated/UART\uart.h ****  *
 891:C:/Users/Mafish/Documents/GitHub/MAB_Controller/Dave/Generated/UART\uart.h ****  *   int main(void)
 892:C:/Users/Mafish/Documents/GitHub/MAB_Controller/Dave/Generated/UART\uart.h ****  *   {
 893:C:/Users/Mafish/Documents/GitHub/MAB_Controller/Dave/Generated/UART\uart.h ****  *     UART_STATUS_t init_status;
 894:C:/Users/Mafish/Documents/GitHub/MAB_Controller/Dave/Generated/UART\uart.h ****  *     uint8_t Send_Data[] = "Infineon";
 895:C:/Users/Mafish/Documents/GitHub/MAB_Controller/Dave/Generated/UART\uart.h ****  *
 896:C:/Users/Mafish/Documents/GitHub/MAB_Controller/Dave/Generated/UART\uart.h ****  *     init_status = (UART_STATUS_t)UART_Init(&UART_0);
 897:C:/Users/Mafish/Documents/GitHub/MAB_Controller/Dave/Generated/UART\uart.h ****  *     if(init_status == UART_STATUS_SUCCESS)
 898:C:/Users/Mafish/Documents/GitHub/MAB_Controller/Dave/Generated/UART\uart.h ****  *     {
 899:C:/Users/Mafish/Documents/GitHub/MAB_Controller/Dave/Generated/UART\uart.h ****  *       if(UART_StartTransmitDMA(&UART_0, Send_Data, sizeof(Send_Data)) == UART_STATUS_SUCCESS)
 900:C:/Users/Mafish/Documents/GitHub/MAB_Controller/Dave/Generated/UART\uart.h ****  *       {
 901:C:/Users/Mafish/Documents/GitHub/MAB_Controller/Dave/Generated/UART\uart.h ****  *         //Wait till the data is transmitted.
 902:C:/Users/Mafish/Documents/GitHub/MAB_Controller/Dave/Generated/UART\uart.h ****  *         while(UART_0.runtime->tx_busy)
 903:C:/Users/Mafish/Documents/GitHub/MAB_Controller/Dave/Generated/UART\uart.h ****  *         {
 904:C:/Users/Mafish/Documents/GitHub/MAB_Controller/Dave/Generated/UART\uart.h ****  *         }
 905:C:/Users/Mafish/Documents/GitHub/MAB_Controller/Dave/Generated/UART\uart.h ****  *       }
 906:C:/Users/Mafish/Documents/GitHub/MAB_Controller/Dave/Generated/UART\uart.h ****  *     }
 907:C:/Users/Mafish/Documents/GitHub/MAB_Controller/Dave/Generated/UART\uart.h ****  *     else
 908:C:/Users/Mafish/Documents/GitHub/MAB_Controller/Dave/Generated/UART\uart.h ****  *     {
 909:C:/Users/Mafish/Documents/GitHub/MAB_Controller/Dave/Generated/UART\uart.h ****  *      XMC_DEBUG("main: Application initialization failed");
 910:C:/Users/Mafish/Documents/GitHub/MAB_Controller/Dave/Generated/UART\uart.h ****  *      while(1U)
 911:C:/Users/Mafish/Documents/GitHub/MAB_Controller/Dave/Generated/UART\uart.h ****  *      {
 912:C:/Users/Mafish/Documents/GitHub/MAB_Controller/Dave/Generated/UART\uart.h ****  *      }
 913:C:/Users/Mafish/Documents/GitHub/MAB_Controller/Dave/Generated/UART\uart.h ****  *     }
 914:C:/Users/Mafish/Documents/GitHub/MAB_Controller/Dave/Generated/UART\uart.h ****  *      return 1U;
 915:C:/Users/Mafish/Documents/GitHub/MAB_Controller/Dave/Generated/UART\uart.h ****  *  }
 916:C:/Users/Mafish/Documents/GitHub/MAB_Controller/Dave/Generated/UART\uart.h ****  * @endcode
 917:C:/Users/Mafish/Documents/GitHub/MAB_Controller/Dave/Generated/UART\uart.h ****  *
 918:C:/Users/Mafish/Documents/GitHub/MAB_Controller/Dave/Generated/UART\uart.h ****  */
 919:C:/Users/Mafish/Documents/GitHub/MAB_Controller/Dave/Generated/UART\uart.h **** UART_STATUS_t UART_StartTransmitDMA(const UART_t *const handle, uint8_t* data_ptr, uint32_t count);
 920:C:/Users/Mafish/Documents/GitHub/MAB_Controller/Dave/Generated/UART\uart.h **** #endif
 921:C:/Users/Mafish/Documents/GitHub/MAB_Controller/Dave/Generated/UART\uart.h **** 
 922:C:/Users/Mafish/Documents/GitHub/MAB_Controller/Dave/Generated/UART\uart.h **** #ifdef UART_RX_DMA_USED
 923:C:/Users/Mafish/Documents/GitHub/MAB_Controller/Dave/Generated/UART\uart.h **** /**
 924:C:/Users/Mafish/Documents/GitHub/MAB_Controller/Dave/Generated/UART\uart.h ****  * @brief Registers a request for receiving data over UART channel using DMA.
 925:C:/Users/Mafish/Documents/GitHub/MAB_Controller/Dave/Generated/UART\uart.h ****  *
 926:C:/Users/Mafish/Documents/GitHub/MAB_Controller/Dave/Generated/UART\uart.h ****  *
 927:C:/Users/Mafish/Documents/GitHub/MAB_Controller/Dave/Generated/UART\uart.h ****  * @param  handle  Pointer to UART_t handle structure
 928:C:/Users/Mafish/Documents/GitHub/MAB_Controller/Dave/Generated/UART\uart.h ****  * @param data_ptr  Pointer to data of type uint8_t.
 929:C:/Users/Mafish/Documents/GitHub/MAB_Controller/Dave/Generated/UART\uart.h ****  * @param  count  Total no of bytes to be received.\n
 930:C:/Users/Mafish/Documents/GitHub/MAB_Controller/Dave/Generated/UART\uart.h ****  *                \b Range: minimum= 1, maximum= 4096.
 931:C:/Users/Mafish/Documents/GitHub/MAB_Controller/Dave/Generated/UART\uart.h ****  *
 932:C:/Users/Mafish/Documents/GitHub/MAB_Controller/Dave/Generated/UART\uart.h ****  * @return  UART_STATUS_t: Status for receive request.\n
 933:C:/Users/Mafish/Documents/GitHub/MAB_Controller/Dave/Generated/UART\uart.h ****  *                        @ref UART_STATUS_SUCCESS if the request is accepted.\n
 934:C:/Users/Mafish/Documents/GitHub/MAB_Controller/Dave/Generated/UART\uart.h ****  *                        @ref UART_STATUS_BUSY if a reception is in progress.\n
 935:C:/Users/Mafish/Documents/GitHub/MAB_Controller/Dave/Generated/UART\uart.h ****  *                        @ref UART_STATUS_MODE_MISMATCH if the handle is not configured for
 936:C:/Users/Mafish/Documents/GitHub/MAB_Controller/Dave/Generated/UART\uart.h ****  *                        DMA receive mode. \n
 937:C:/Users/Mafish/Documents/GitHub/MAB_Controller/Dave/Generated/UART\uart.h ****  *                        @ref UART_STATUS_BUFFER_INVALID if the data_ptr is NULL or count is 0. \n
 938:C:/Users/Mafish/Documents/GitHub/MAB_Controller/Dave/Generated/UART\uart.h ****  *
 939:C:/Users/Mafish/Documents/GitHub/MAB_Controller/Dave/Generated/UART\uart.h ****  *
 940:C:/Users/Mafish/Documents/GitHub/MAB_Controller/Dave/Generated/UART\uart.h ****  * \par<b>Description:</b><br>
 941:C:/Users/Mafish/Documents/GitHub/MAB_Controller/Dave/Generated/UART\uart.h ****  * Data will be received asynchronously. When the requested number of data bytes are received,
 942:C:/Users/Mafish/Documents/GitHub/MAB_Controller/Dave/Generated/UART\uart.h ****  * optionally, the user configured callback function will be executed.
 943:C:/Users/Mafish/Documents/GitHub/MAB_Controller/Dave/Generated/UART\uart.h ****  * This function only registers a request to receive a number of data bytes from a USIC channel.
 944:C:/Users/Mafish/Documents/GitHub/MAB_Controller/Dave/Generated/UART\uart.h ****  * When all the requested number of data bytes are received, the configured callback
 945:C:/Users/Mafish/Documents/GitHub/MAB_Controller/Dave/Generated/UART\uart.h ****  * function will be executed.
 946:C:/Users/Mafish/Documents/GitHub/MAB_Controller/Dave/Generated/UART\uart.h ****  * If a callback function is not configured, the user has to poll for the value of the
 947:C:/Users/Mafish/Documents/GitHub/MAB_Controller/Dave/Generated/UART\uart.h ****  * variable, \a handle->runtime->rx_busy to be false. The value is updated to \a false when all the
 948:C:/Users/Mafish/Documents/GitHub/MAB_Controller/Dave/Generated/UART\uart.h ****  * requested number of data bytes are received.
 949:C:/Users/Mafish/Documents/GitHub/MAB_Controller/Dave/Generated/UART\uart.h ****  * A maximum of 4096 bytes can be received in one API call. This limit is because of the DMA single
 950:C:/Users/Mafish/Documents/GitHub/MAB_Controller/Dave/Generated/UART\uart.h ****  *
 951:C:/Users/Mafish/Documents/GitHub/MAB_Controller/Dave/Generated/UART\uart.h ****  * Example Usage:
 952:C:/Users/Mafish/Documents/GitHub/MAB_Controller/Dave/Generated/UART\uart.h ****  * @code
 953:C:/Users/Mafish/Documents/GitHub/MAB_Controller/Dave/Generated/UART\uart.h ****  *   #include <DAVE.h>         //Declarations from DAVE Code Generation (includes SFR declaration)
 954:C:/Users/Mafish/Documents/GitHub/MAB_Controller/Dave/Generated/UART\uart.h ****  *
 955:C:/Users/Mafish/Documents/GitHub/MAB_Controller/Dave/Generated/UART\uart.h ****  *   //Pre condition:
 956:C:/Users/Mafish/Documents/GitHub/MAB_Controller/Dave/Generated/UART\uart.h ****  *   //Transmit mode and receive mode should be configured to "DMA"
 957:C:/Users/Mafish/Documents/GitHub/MAB_Controller/Dave/Generated/UART\uart.h ****  *   //Description:
 958:C:/Users/Mafish/Documents/GitHub/MAB_Controller/Dave/Generated/UART\uart.h ****  *   //Receives 10 bytes of data and transmits the received data.
 959:C:/Users/Mafish/Documents/GitHub/MAB_Controller/Dave/Generated/UART\uart.h ****  *
 960:C:/Users/Mafish/Documents/GitHub/MAB_Controller/Dave/Generated/UART\uart.h ****  *   int main(void)
 961:C:/Users/Mafish/Documents/GitHub/MAB_Controller/Dave/Generated/UART\uart.h ****  *   {
 962:C:/Users/Mafish/Documents/GitHub/MAB_Controller/Dave/Generated/UART\uart.h ****  *     UART_STATUS_t init_status;
 963:C:/Users/Mafish/Documents/GitHub/MAB_Controller/Dave/Generated/UART\uart.h ****  *     uint8_t ReadData[10];
 964:C:/Users/Mafish/Documents/GitHub/MAB_Controller/Dave/Generated/UART\uart.h ****  *
 965:C:/Users/Mafish/Documents/GitHub/MAB_Controller/Dave/Generated/UART\uart.h ****  *     init_status = (UART_STATUS_t)UART_Init(&UART_0);
 966:C:/Users/Mafish/Documents/GitHub/MAB_Controller/Dave/Generated/UART\uart.h ****  *     if(init_status == UART_STATUS_SUCCESS)
 967:C:/Users/Mafish/Documents/GitHub/MAB_Controller/Dave/Generated/UART\uart.h ****  *     {
 968:C:/Users/Mafish/Documents/GitHub/MAB_Controller/Dave/Generated/UART\uart.h ****  *       while(1)
 969:C:/Users/Mafish/Documents/GitHub/MAB_Controller/Dave/Generated/UART\uart.h ****  *       {
 970:C:/Users/Mafish/Documents/GitHub/MAB_Controller/Dave/Generated/UART\uart.h ****  *         //Receive 10 bytes of data
 971:C:/Users/Mafish/Documents/GitHub/MAB_Controller/Dave/Generated/UART\uart.h ****  *         if(UART_StartReceiveDMA(&UART_0, ReadData, 10) == UART_STATUS_SUCCESS)
 972:C:/Users/Mafish/Documents/GitHub/MAB_Controller/Dave/Generated/UART\uart.h ****  *         {
 973:C:/Users/Mafish/Documents/GitHub/MAB_Controller/Dave/Generated/UART\uart.h ****  *           //Wait till 10 bytes are received
 974:C:/Users/Mafish/Documents/GitHub/MAB_Controller/Dave/Generated/UART\uart.h ****  *           while(UART_0.runtime->rx_busy)
 975:C:/Users/Mafish/Documents/GitHub/MAB_Controller/Dave/Generated/UART\uart.h ****  *           {
 976:C:/Users/Mafish/Documents/GitHub/MAB_Controller/Dave/Generated/UART\uart.h ****  *           }
 977:C:/Users/Mafish/Documents/GitHub/MAB_Controller/Dave/Generated/UART\uart.h ****  *           //Transmit the received data.
 978:C:/Users/Mafish/Documents/GitHub/MAB_Controller/Dave/Generated/UART\uart.h ****  *           UART_StartTransmitDMA(&UART_0, ReadData, 10);
 979:C:/Users/Mafish/Documents/GitHub/MAB_Controller/Dave/Generated/UART\uart.h ****  *         }
 980:C:/Users/Mafish/Documents/GitHub/MAB_Controller/Dave/Generated/UART\uart.h ****  *       }
 981:C:/Users/Mafish/Documents/GitHub/MAB_Controller/Dave/Generated/UART\uart.h ****  *     }
 982:C:/Users/Mafish/Documents/GitHub/MAB_Controller/Dave/Generated/UART\uart.h ****  *     else
 983:C:/Users/Mafish/Documents/GitHub/MAB_Controller/Dave/Generated/UART\uart.h ****  *     {
 984:C:/Users/Mafish/Documents/GitHub/MAB_Controller/Dave/Generated/UART\uart.h ****  *      XMC_DEBUG("main: Application initialization failed");
 985:C:/Users/Mafish/Documents/GitHub/MAB_Controller/Dave/Generated/UART\uart.h ****  *      while(1U)
 986:C:/Users/Mafish/Documents/GitHub/MAB_Controller/Dave/Generated/UART\uart.h ****  *      {
 987:C:/Users/Mafish/Documents/GitHub/MAB_Controller/Dave/Generated/UART\uart.h ****  *      }
 988:C:/Users/Mafish/Documents/GitHub/MAB_Controller/Dave/Generated/UART\uart.h ****  *     }
 989:C:/Users/Mafish/Documents/GitHub/MAB_Controller/Dave/Generated/UART\uart.h ****  *      return 1U;
 990:C:/Users/Mafish/Documents/GitHub/MAB_Controller/Dave/Generated/UART\uart.h ****  *  }
 991:C:/Users/Mafish/Documents/GitHub/MAB_Controller/Dave/Generated/UART\uart.h ****  *  @endcode
 992:C:/Users/Mafish/Documents/GitHub/MAB_Controller/Dave/Generated/UART\uart.h ****  *
 993:C:/Users/Mafish/Documents/GitHub/MAB_Controller/Dave/Generated/UART\uart.h ****  */
 994:C:/Users/Mafish/Documents/GitHub/MAB_Controller/Dave/Generated/UART\uart.h **** UART_STATUS_t UART_StartReceiveDMA(const UART_t *const handle, uint8_t* data_ptr, uint32_t count);
 995:C:/Users/Mafish/Documents/GitHub/MAB_Controller/Dave/Generated/UART\uart.h **** #endif
 996:C:/Users/Mafish/Documents/GitHub/MAB_Controller/Dave/Generated/UART\uart.h **** 
 997:C:/Users/Mafish/Documents/GitHub/MAB_Controller/Dave/Generated/UART\uart.h **** /**
 998:C:/Users/Mafish/Documents/GitHub/MAB_Controller/Dave/Generated/UART\uart.h ****  * @brief Changes the baudrate of UART channel.
 999:C:/Users/Mafish/Documents/GitHub/MAB_Controller/Dave/Generated/UART\uart.h ****  *
1000:C:/Users/Mafish/Documents/GitHub/MAB_Controller/Dave/Generated/UART\uart.h ****  * @param UART_t * Pointer to the UART APP handle.
1001:C:/Users/Mafish/Documents/GitHub/MAB_Controller/Dave/Generated/UART\uart.h ****  * @param baud Value of new baudrate.
1002:C:/Users/Mafish/Documents/GitHub/MAB_Controller/Dave/Generated/UART\uart.h ****  * @param oversampling Number of samples to be considered for each symbol. 16 is the standard value
1003:C:/Users/Mafish/Documents/GitHub/MAB_Controller/Dave/Generated/UART\uart.h ****  *
1004:C:/Users/Mafish/Documents/GitHub/MAB_Controller/Dave/Generated/UART\uart.h ****  * @return UART_STATUS_t UART_STATUS_SUCCESS if baudrate changed successfully.
1005:C:/Users/Mafish/Documents/GitHub/MAB_Controller/Dave/Generated/UART\uart.h ****  *                       UART_STATUS_FAILURE if baudrate could not be changed.
1006:C:/Users/Mafish/Documents/GitHub/MAB_Controller/Dave/Generated/UART\uart.h ****  *
1007:C:/Users/Mafish/Documents/GitHub/MAB_Controller/Dave/Generated/UART\uart.h ****  * \par<b>Description:</b><br>
1008:C:/Users/Mafish/Documents/GitHub/MAB_Controller/Dave/Generated/UART\uart.h ****  * The function stops the channel, calculates the clock divider values to achieve the desired baudr
1009:C:/Users/Mafish/Documents/GitHub/MAB_Controller/Dave/Generated/UART\uart.h ****  * Sets the divider values and reconfigures the channel as per the configuration in the UI. The cha
1010:C:/Users/Mafish/Documents/GitHub/MAB_Controller/Dave/Generated/UART\uart.h ****  * enabled at the end of configuration.
1011:C:/Users/Mafish/Documents/GitHub/MAB_Controller/Dave/Generated/UART\uart.h ****  * <BR>
1012:C:/Users/Mafish/Documents/GitHub/MAB_Controller/Dave/Generated/UART\uart.h ****  *
1013:C:/Users/Mafish/Documents/GitHub/MAB_Controller/Dave/Generated/UART\uart.h ****  * Example Usage:
1014:C:/Users/Mafish/Documents/GitHub/MAB_Controller/Dave/Generated/UART\uart.h ****  * <i>Please disable the receive FIFO in the 'Advanced Settings' tab</i>
1015:C:/Users/Mafish/Documents/GitHub/MAB_Controller/Dave/Generated/UART\uart.h ****  * @code
1016:C:/Users/Mafish/Documents/GitHub/MAB_Controller/Dave/Generated/UART\uart.h ****  *
1017:C:/Users/Mafish/Documents/GitHub/MAB_Controller/Dave/Generated/UART\uart.h ****  * #include <DAVE.h>      //Declarations from DAVE Code Generation (includes SFR declaration)
1018:C:/Users/Mafish/Documents/GitHub/MAB_Controller/Dave/Generated/UART\uart.h ****  *
1019:C:/Users/Mafish/Documents/GitHub/MAB_Controller/Dave/Generated/UART\uart.h ****  * //Precondition:
1020:C:/Users/Mafish/Documents/GitHub/MAB_Controller/Dave/Generated/UART\uart.h ****  * //Disable receive FIFO in the Advanced settings tab.
1021:C:/Users/Mafish/Documents/GitHub/MAB_Controller/Dave/Generated/UART\uart.h ****  * //Description:
1022:C:/Users/Mafish/Documents/GitHub/MAB_Controller/Dave/Generated/UART\uart.h ****  * //Waits for user input of new baudrate value. Input is recognized after line feed is provided.
1023:C:/Users/Mafish/Documents/GitHub/MAB_Controller/Dave/Generated/UART\uart.h ****  * //Value is set as the new baudrate and the application waits for any key to be pressed.
1024:C:/Users/Mafish/Documents/GitHub/MAB_Controller/Dave/Generated/UART\uart.h ****  * //This helps in reconfiguring the terminal application to the newly set baudrate. On receiving
1025:C:/Users/Mafish/Documents/GitHub/MAB_Controller/Dave/Generated/UART\uart.h ****  * //new character, message indicating the successful baudrate change will be displayed using updat
1026:C:/Users/Mafish/Documents/GitHub/MAB_Controller/Dave/Generated/UART\uart.h ****  * //value of baudrate.
1027:C:/Users/Mafish/Documents/GitHub/MAB_Controller/Dave/Generated/UART\uart.h ****  *
1028:C:/Users/Mafish/Documents/GitHub/MAB_Controller/Dave/Generated/UART\uart.h ****  * const uint8_t send_askbaud[] = "Please enter desired baudrate:";
1029:C:/Users/Mafish/Documents/GitHub/MAB_Controller/Dave/Generated/UART\uart.h ****  * const uint8_t send_data[] = "\nPress 'y' to change baudrate to desired value:";
1030:C:/Users/Mafish/Documents/GitHub/MAB_Controller/Dave/Generated/UART\uart.h ****  * const uint8_t send_invalid[] = "\nInvalid value!!";
1031:C:/Users/Mafish/Documents/GitHub/MAB_Controller/Dave/Generated/UART\uart.h ****  * const uint8_t send_success[] = "\nWe made it...Baudrate changed successfully :-).\n\n";
1032:C:/Users/Mafish/Documents/GitHub/MAB_Controller/Dave/Generated/UART\uart.h ****  * uint8_t rec_data[11];
1033:C:/Users/Mafish/Documents/GitHub/MAB_Controller/Dave/Generated/UART\uart.h ****  * int main(void)
1034:C:/Users/Mafish/Documents/GitHub/MAB_Controller/Dave/Generated/UART\uart.h ****  * {
1035:C:/Users/Mafish/Documents/GitHub/MAB_Controller/Dave/Generated/UART\uart.h ****  *   DAVE_STATUS_t status;
1036:C:/Users/Mafish/Documents/GitHub/MAB_Controller/Dave/Generated/UART\uart.h ****  *   uint32_t baud;
1037:C:/Users/Mafish/Documents/GitHub/MAB_Controller/Dave/Generated/UART\uart.h ****  *
1038:C:/Users/Mafish/Documents/GitHub/MAB_Controller/Dave/Generated/UART\uart.h ****  *   status = DAVE_Init();    // Initialization of DAVE Apps
1039:C:/Users/Mafish/Documents/GitHub/MAB_Controller/Dave/Generated/UART\uart.h ****  *
1040:C:/Users/Mafish/Documents/GitHub/MAB_Controller/Dave/Generated/UART\uart.h ****  *   if(status == DAVE_STATUS_FAILURE)
1041:C:/Users/Mafish/Documents/GitHub/MAB_Controller/Dave/Generated/UART\uart.h ****  *   {
1042:C:/Users/Mafish/Documents/GitHub/MAB_Controller/Dave/Generated/UART\uart.h ****  *     XMC_DEBUG(("DAVE Apps initialization failed with status %d\n", status));
1043:C:/Users/Mafish/Documents/GitHub/MAB_Controller/Dave/Generated/UART\uart.h ****  *     while(1U)
1044:C:/Users/Mafish/Documents/GitHub/MAB_Controller/Dave/Generated/UART\uart.h ****  *     {
1045:C:/Users/Mafish/Documents/GitHub/MAB_Controller/Dave/Generated/UART\uart.h ****  *     }
1046:C:/Users/Mafish/Documents/GitHub/MAB_Controller/Dave/Generated/UART\uart.h ****  *   }
1047:C:/Users/Mafish/Documents/GitHub/MAB_Controller/Dave/Generated/UART\uart.h ****  *
1048:C:/Users/Mafish/Documents/GitHub/MAB_Controller/Dave/Generated/UART\uart.h ****  *   while(1U)
1049:C:/Users/Mafish/Documents/GitHub/MAB_Controller/Dave/Generated/UART\uart.h ****  *   {
1050:C:/Users/Mafish/Documents/GitHub/MAB_Controller/Dave/Generated/UART\uart.h ****  *     UART_Transmit(&UART_0, send_askbaud, sizeof(send_askbaud)-1);
1051:C:/Users/Mafish/Documents/GitHub/MAB_Controller/Dave/Generated/UART\uart.h ****  *     UART_Receive(&UART_0, rec_data, 10);
1052:C:/Users/Mafish/Documents/GitHub/MAB_Controller/Dave/Generated/UART\uart.h ****  *     while(UART_0.runtime->tx_busy);
1053:C:/Users/Mafish/Documents/GitHub/MAB_Controller/Dave/Generated/UART\uart.h ****  *     while(UART_0.runtime->rx_busy)
1054:C:/Users/Mafish/Documents/GitHub/MAB_Controller/Dave/Generated/UART\uart.h ****  *     {
1055:C:/Users/Mafish/Documents/GitHub/MAB_Controller/Dave/Generated/UART\uart.h ****  *       //If user enters newline character, accept the value
1056:C:/Users/Mafish/Documents/GitHub/MAB_Controller/Dave/Generated/UART\uart.h ****  *       if((UART_0.runtime->rx_data_index > 0) && (UART_0.runtime->rx_data[UART_0.runtime->rx_data
1057:C:/Users/Mafish/Documents/GitHub/MAB_Controller/Dave/Generated/UART\uart.h ****  *       {
1058:C:/Users/Mafish/Documents/GitHub/MAB_Controller/Dave/Generated/UART\uart.h ****  *         //End reception of data on finding newline character
1059:C:/Users/Mafish/Documents/GitHub/MAB_Controller/Dave/Generated/UART\uart.h ****  *         UART_AbortReceive(&UART_0);
1060:C:/Users/Mafish/Documents/GitHub/MAB_Controller/Dave/Generated/UART\uart.h ****  *       }
1061:C:/Users/Mafish/Documents/GitHub/MAB_Controller/Dave/Generated/UART\uart.h ****  *     }
1062:C:/Users/Mafish/Documents/GitHub/MAB_Controller/Dave/Generated/UART\uart.h ****  *     //Add end of string character to the last location
1063:C:/Users/Mafish/Documents/GitHub/MAB_Controller/Dave/Generated/UART\uart.h ****  *     rec_data[UART_0.runtime->rx_data_index] = 0;
1064:C:/Users/Mafish/Documents/GitHub/MAB_Controller/Dave/Generated/UART\uart.h ****  *     //Convert the entered string to number.
1065:C:/Users/Mafish/Documents/GitHub/MAB_Controller/Dave/Generated/UART\uart.h ****  *     baud = atoi(rec_data);
1066:C:/Users/Mafish/Documents/GitHub/MAB_Controller/Dave/Generated/UART\uart.h ****  *     //If the conversion is successful, set the baudrate.
1067:C:/Users/Mafish/Documents/GitHub/MAB_Controller/Dave/Generated/UART\uart.h ****  *     if(baud > 0)
1068:C:/Users/Mafish/Documents/GitHub/MAB_Controller/Dave/Generated/UART\uart.h ****  *     {
1069:C:/Users/Mafish/Documents/GitHub/MAB_Controller/Dave/Generated/UART\uart.h ****  *       //Set the baudrate to USIC channel
1070:C:/Users/Mafish/Documents/GitHub/MAB_Controller/Dave/Generated/UART\uart.h ****  *       if(UART_SetBaudrate(&UART_0, baud, 16) == UART_STATUS_SUCCESS)
1071:C:/Users/Mafish/Documents/GitHub/MAB_Controller/Dave/Generated/UART\uart.h ****  *       {
1072:C:/Users/Mafish/Documents/GitHub/MAB_Controller/Dave/Generated/UART\uart.h ****  *         //After changing the baudrate successfully,
1073:C:/Users/Mafish/Documents/GitHub/MAB_Controller/Dave/Generated/UART\uart.h ****  *         //Wait for user to enter a character.
1074:C:/Users/Mafish/Documents/GitHub/MAB_Controller/Dave/Generated/UART\uart.h ****  *         //This wait gives time for the user to change
1075:C:/Users/Mafish/Documents/GitHub/MAB_Controller/Dave/Generated/UART\uart.h ****  *         //the baudrate of the terminal tool used.
1076:C:/Users/Mafish/Documents/GitHub/MAB_Controller/Dave/Generated/UART\uart.h ****  *         UART_Receive(&UART_0, rec_data, 1);
1077:C:/Users/Mafish/Documents/GitHub/MAB_Controller/Dave/Generated/UART\uart.h ****  *         while(UART_0.runtime->rx_busy);
1078:C:/Users/Mafish/Documents/GitHub/MAB_Controller/Dave/Generated/UART\uart.h ****  *         UART_Transmit(&UART_0, send_success, sizeof(send_success)-1);
1079:C:/Users/Mafish/Documents/GitHub/MAB_Controller/Dave/Generated/UART\uart.h ****  *       }
1080:C:/Users/Mafish/Documents/GitHub/MAB_Controller/Dave/Generated/UART\uart.h ****  *       else
1081:C:/Users/Mafish/Documents/GitHub/MAB_Controller/Dave/Generated/UART\uart.h ****  *       {
1082:C:/Users/Mafish/Documents/GitHub/MAB_Controller/Dave/Generated/UART\uart.h ****  *         UART_Transmit(&UART_0, send_invalid, sizeof(send_invalid)-1);
1083:C:/Users/Mafish/Documents/GitHub/MAB_Controller/Dave/Generated/UART\uart.h ****  *       }
1084:C:/Users/Mafish/Documents/GitHub/MAB_Controller/Dave/Generated/UART\uart.h ****  *     }
1085:C:/Users/Mafish/Documents/GitHub/MAB_Controller/Dave/Generated/UART\uart.h ****  *     else
1086:C:/Users/Mafish/Documents/GitHub/MAB_Controller/Dave/Generated/UART\uart.h ****  *     {
1087:C:/Users/Mafish/Documents/GitHub/MAB_Controller/Dave/Generated/UART\uart.h ****  *       UART_Transmit(&UART_0, send_invalid, sizeof(send_invalid)-1);
1088:C:/Users/Mafish/Documents/GitHub/MAB_Controller/Dave/Generated/UART\uart.h ****  *     }
1089:C:/Users/Mafish/Documents/GitHub/MAB_Controller/Dave/Generated/UART\uart.h ****  *     while(UART_0.runtime->tx_busy);
1090:C:/Users/Mafish/Documents/GitHub/MAB_Controller/Dave/Generated/UART\uart.h ****  *   }
1091:C:/Users/Mafish/Documents/GitHub/MAB_Controller/Dave/Generated/UART\uart.h ****  * }
1092:C:/Users/Mafish/Documents/GitHub/MAB_Controller/Dave/Generated/UART\uart.h ****  * @endcode
1093:C:/Users/Mafish/Documents/GitHub/MAB_Controller/Dave/Generated/UART\uart.h ****  * */
1094:C:/Users/Mafish/Documents/GitHub/MAB_Controller/Dave/Generated/UART\uart.h **** UART_STATUS_t UART_SetBaudrate(const UART_t * handle, uint32_t baud, uint32_t oversampling);
1095:C:/Users/Mafish/Documents/GitHub/MAB_Controller/Dave/Generated/UART\uart.h **** 
1096:C:/Users/Mafish/Documents/GitHub/MAB_Controller/Dave/Generated/UART\uart.h **** /**
1097:C:/Users/Mafish/Documents/GitHub/MAB_Controller/Dave/Generated/UART\uart.h ****  * @brief Gets the transmit FIFO event flags.
1098:C:/Users/Mafish/Documents/GitHub/MAB_Controller/Dave/Generated/UART\uart.h ****  *
1099:C:/Users/Mafish/Documents/GitHub/MAB_Controller/Dave/Generated/UART\uart.h ****  * @param  handle UART APP handle pointer of type @ref UART_t
1100:C:/Users/Mafish/Documents/GitHub/MAB_Controller/Dave/Generated/UART\uart.h ****  *
1101:C:/Users/Mafish/Documents/GitHub/MAB_Controller/Dave/Generated/UART\uart.h ****  * @return uint32_t: Status of the STBI and TBERI bits in TRBSR register in
1102:C:/Users/Mafish/Documents/GitHub/MAB_Controller/Dave/Generated/UART\uart.h ****  *                      their bit positions.\n
1103:C:/Users/Mafish/Documents/GitHub/MAB_Controller/Dave/Generated/UART\uart.h ****  *                      \b Range: Use type @ref XMC_USIC_CH_TXFIFO_EVENT_t for the bitmask of event
1104:C:/Users/Mafish/Documents/GitHub/MAB_Controller/Dave/Generated/UART\uart.h ****  *
1105:C:/Users/Mafish/Documents/GitHub/MAB_Controller/Dave/Generated/UART\uart.h ****  * \par<b>Description:</b><br>
1106:C:/Users/Mafish/Documents/GitHub/MAB_Controller/Dave/Generated/UART\uart.h ****  * Function reads the value of TRBSR register. It masks the standard transmit buffer
1107:C:/Users/Mafish/Documents/GitHub/MAB_Controller/Dave/Generated/UART\uart.h ****  * interrupt flag and transmit buffer error flag before providing the value.
1108:C:/Users/Mafish/Documents/GitHub/MAB_Controller/Dave/Generated/UART\uart.h ****  * User has to mask the bits of interest before checking the status.
1109:C:/Users/Mafish/Documents/GitHub/MAB_Controller/Dave/Generated/UART\uart.h ****  *
1110:C:/Users/Mafish/Documents/GitHub/MAB_Controller/Dave/Generated/UART\uart.h ****  * Example Usage:
1111:C:/Users/Mafish/Documents/GitHub/MAB_Controller/Dave/Generated/UART\uart.h ****  * @code
1112:C:/Users/Mafish/Documents/GitHub/MAB_Controller/Dave/Generated/UART\uart.h ****  *   #include <DAVE.h>         //Declarations from DAVE Code Generation (includes SFR declaration)
1113:C:/Users/Mafish/Documents/GitHub/MAB_Controller/Dave/Generated/UART\uart.h ****  *
1114:C:/Users/Mafish/Documents/GitHub/MAB_Controller/Dave/Generated/UART\uart.h ****  *  //Pre-condition:
1115:C:/Users/Mafish/Documents/GitHub/MAB_Controller/Dave/Generated/UART\uart.h ****  *  //Configure transmit mode as "Direct" with transmit FIFO enabled.
1116:C:/Users/Mafish/Documents/GitHub/MAB_Controller/Dave/Generated/UART\uart.h ****  *  //Description:
1117:C:/Users/Mafish/Documents/GitHub/MAB_Controller/Dave/Generated/UART\uart.h ****  *  //Transmits the string "Infineon".
1118:C:/Users/Mafish/Documents/GitHub/MAB_Controller/Dave/Generated/UART\uart.h ****  *   int main(void)
1119:C:/Users/Mafish/Documents/GitHub/MAB_Controller/Dave/Generated/UART\uart.h ****  *   {
1120:C:/Users/Mafish/Documents/GitHub/MAB_Controller/Dave/Generated/UART\uart.h ****  *     UART_STATUS_t init_status;
1121:C:/Users/Mafish/Documents/GitHub/MAB_Controller/Dave/Generated/UART\uart.h ****  *     uint8_t Send_Data[] = "Infineon";
1122:C:/Users/Mafish/Documents/GitHub/MAB_Controller/Dave/Generated/UART\uart.h ****  *     uint8_t index = 0;
1123:C:/Users/Mafish/Documents/GitHub/MAB_Controller/Dave/Generated/UART\uart.h ****  *
1124:C:/Users/Mafish/Documents/GitHub/MAB_Controller/Dave/Generated/UART\uart.h ****  *     init_status = (UART_STATUS_t)UART_Init(&UART_0);
1125:C:/Users/Mafish/Documents/GitHub/MAB_Controller/Dave/Generated/UART\uart.h ****  *     if(init_status == UART_STATUS_SUCCESS)
1126:C:/Users/Mafish/Documents/GitHub/MAB_Controller/Dave/Generated/UART\uart.h ****  *     {
1127:C:/Users/Mafish/Documents/GitHub/MAB_Controller/Dave/Generated/UART\uart.h ****  *        //Clear the Tx FIFO standard transmit buffer event.
1128:C:/Users/Mafish/Documents/GitHub/MAB_Controller/Dave/Generated/UART\uart.h ****  *        UART_ClearTXFIFOStatus(&UART_0, XMC_USIC_CH_TXFIFO_EVENT_STANDARD);
1129:C:/Users/Mafish/Documents/GitHub/MAB_Controller/Dave/Generated/UART\uart.h ****  *        //Iterate for the length of the string "Infineon"
1130:C:/Users/Mafish/Documents/GitHub/MAB_Controller/Dave/Generated/UART\uart.h ****  *        while(index < sizeof(Send_Data)-1)
1131:C:/Users/Mafish/Documents/GitHub/MAB_Controller/Dave/Generated/UART\uart.h ****  *        {
1132:C:/Users/Mafish/Documents/GitHub/MAB_Controller/Dave/Generated/UART\uart.h ****  *           //Put the character in the transmit FIFO.
1133:C:/Users/Mafish/Documents/GitHub/MAB_Controller/Dave/Generated/UART\uart.h ****  *           XMC_USIC_CH_TXFIFO_PutData((XMC_USIC_CH_t *)UART_0.channel,(uint16_t)Send_Data[index])
1134:C:/Users/Mafish/Documents/GitHub/MAB_Controller/Dave/Generated/UART\uart.h ****  *           index++;
1135:C:/Users/Mafish/Documents/GitHub/MAB_Controller/Dave/Generated/UART\uart.h ****  *
1136:C:/Users/Mafish/Documents/GitHub/MAB_Controller/Dave/Generated/UART\uart.h ****  *           //Wait for FIFO transmit standard buffer interrupt to fill it again with remaining dat
1137:C:/Users/Mafish/Documents/GitHub/MAB_Controller/Dave/Generated/UART\uart.h ****  *           while((UART_GetTXFIFOStatus(&UART_0) & XMC_USIC_CH_TXFIFO_EVENT_STANDARD) == 0);
1138:C:/Users/Mafish/Documents/GitHub/MAB_Controller/Dave/Generated/UART\uart.h ****  *           UART_ClearTXFIFOStatus(&UART_0, XMC_USIC_CH_TXFIFO_EVENT_STANDARD);
1139:C:/Users/Mafish/Documents/GitHub/MAB_Controller/Dave/Generated/UART\uart.h ****  *        }
1140:C:/Users/Mafish/Documents/GitHub/MAB_Controller/Dave/Generated/UART\uart.h ****  *     }
1141:C:/Users/Mafish/Documents/GitHub/MAB_Controller/Dave/Generated/UART\uart.h ****  *     else
1142:C:/Users/Mafish/Documents/GitHub/MAB_Controller/Dave/Generated/UART\uart.h ****  *     {
1143:C:/Users/Mafish/Documents/GitHub/MAB_Controller/Dave/Generated/UART\uart.h ****  *      XMC_DEBUG("main: Application initialization failed");
1144:C:/Users/Mafish/Documents/GitHub/MAB_Controller/Dave/Generated/UART\uart.h ****  *      while(1U)
1145:C:/Users/Mafish/Documents/GitHub/MAB_Controller/Dave/Generated/UART\uart.h ****  *      {
1146:C:/Users/Mafish/Documents/GitHub/MAB_Controller/Dave/Generated/UART\uart.h ****  *      }
1147:C:/Users/Mafish/Documents/GitHub/MAB_Controller/Dave/Generated/UART\uart.h ****  *     }
1148:C:/Users/Mafish/Documents/GitHub/MAB_Controller/Dave/Generated/UART\uart.h ****  *      return 1U;
1149:C:/Users/Mafish/Documents/GitHub/MAB_Controller/Dave/Generated/UART\uart.h ****  *  }
1150:C:/Users/Mafish/Documents/GitHub/MAB_Controller/Dave/Generated/UART\uart.h ****  * @endcode
1151:C:/Users/Mafish/Documents/GitHub/MAB_Controller/Dave/Generated/UART\uart.h ****  *
1152:C:/Users/Mafish/Documents/GitHub/MAB_Controller/Dave/Generated/UART\uart.h ****  */
1153:C:/Users/Mafish/Documents/GitHub/MAB_Controller/Dave/Generated/UART\uart.h **** __STATIC_INLINE uint32_t UART_GetTXFIFOStatus(const UART_t* const handle)
1154:C:/Users/Mafish/Documents/GitHub/MAB_Controller/Dave/Generated/UART\uart.h **** {
1155:C:/Users/Mafish/Documents/GitHub/MAB_Controller/Dave/Generated/UART\uart.h ****   XMC_ASSERT("UART APP handle invalid", (handle != NULL))
1156:C:/Users/Mafish/Documents/GitHub/MAB_Controller/Dave/Generated/UART\uart.h ****   return XMC_USIC_CH_TXFIFO_GetEvent(handle->channel);
1157:C:/Users/Mafish/Documents/GitHub/MAB_Controller/Dave/Generated/UART\uart.h **** }
1158:C:/Users/Mafish/Documents/GitHub/MAB_Controller/Dave/Generated/UART\uart.h **** 
1159:C:/Users/Mafish/Documents/GitHub/MAB_Controller/Dave/Generated/UART\uart.h **** /**
1160:C:/Users/Mafish/Documents/GitHub/MAB_Controller/Dave/Generated/UART\uart.h ****  * @brief Provides the received data from receive buffer.
1161:C:/Users/Mafish/Documents/GitHub/MAB_Controller/Dave/Generated/UART\uart.h ****  *
1162:C:/Users/Mafish/Documents/GitHub/MAB_Controller/Dave/Generated/UART\uart.h ****  * @param  handle UART APP handle pointer of type @ref UART_t
1163:C:/Users/Mafish/Documents/GitHub/MAB_Controller/Dave/Generated/UART\uart.h ****  * @return uint8_t: Data read from RBUF.\n
1164:C:/Users/Mafish/Documents/GitHub/MAB_Controller/Dave/Generated/UART\uart.h ****  *
1165:C:/Users/Mafish/Documents/GitHub/MAB_Controller/Dave/Generated/UART\uart.h ****  * \par<b>Description:</b><br>
1166:C:/Users/Mafish/Documents/GitHub/MAB_Controller/Dave/Generated/UART\uart.h ****  * This can be used in receive mode "Direct" to read the received data.
1167:C:/Users/Mafish/Documents/GitHub/MAB_Controller/Dave/Generated/UART\uart.h ****  * If Rx FIFO is not configured, function reads the value of RBUF register.
1168:C:/Users/Mafish/Documents/GitHub/MAB_Controller/Dave/Generated/UART\uart.h ****  * Otherwise it reads the data from OUTR register.
1169:C:/Users/Mafish/Documents/GitHub/MAB_Controller/Dave/Generated/UART\uart.h ****  * User can poll for receive event or configure an interrupt by connecting the
1170:C:/Users/Mafish/Documents/GitHub/MAB_Controller/Dave/Generated/UART\uart.h ****  * external INTERRUPT APP to receive event signals. This API can be used inside the ISR to read the
1171:C:/Users/Mafish/Documents/GitHub/MAB_Controller/Dave/Generated/UART\uart.h ****  *
1172:C:/Users/Mafish/Documents/GitHub/MAB_Controller/Dave/Generated/UART\uart.h ****  * Example Usage:
1173:C:/Users/Mafish/Documents/GitHub/MAB_Controller/Dave/Generated/UART\uart.h ****  * @code
1174:C:/Users/Mafish/Documents/GitHub/MAB_Controller/Dave/Generated/UART\uart.h ****  *   #include <DAVE.h>         //Declarations from DAVE Code Generation (includes SFR declaration)
1175:C:/Users/Mafish/Documents/GitHub/MAB_Controller/Dave/Generated/UART\uart.h ****  *
1176:C:/Users/Mafish/Documents/GitHub/MAB_Controller/Dave/Generated/UART\uart.h ****  *   //Pre-condition:
1177:C:/Users/Mafish/Documents/GitHub/MAB_Controller/Dave/Generated/UART\uart.h ****  *   //Configure transmit mode and receive mode as "Direct" with transmit FIFO and receive FIFO ena
1178:C:/Users/Mafish/Documents/GitHub/MAB_Controller/Dave/Generated/UART\uart.h ****  *   //Description:
1179:C:/Users/Mafish/Documents/GitHub/MAB_Controller/Dave/Generated/UART\uart.h ****  *   //Transmits the string "Infineon", receives 10 bytes and retransmits the received 10 bytes.
1180:C:/Users/Mafish/Documents/GitHub/MAB_Controller/Dave/Generated/UART\uart.h ****  *
1181:C:/Users/Mafish/Documents/GitHub/MAB_Controller/Dave/Generated/UART\uart.h ****  *   int main(void)
1182:C:/Users/Mafish/Documents/GitHub/MAB_Controller/Dave/Generated/UART\uart.h ****  *   {
1183:C:/Users/Mafish/Documents/GitHub/MAB_Controller/Dave/Generated/UART\uart.h ****  *     UART_STATUS_t init_status;
1184:C:/Users/Mafish/Documents/GitHub/MAB_Controller/Dave/Generated/UART\uart.h ****  *     uint8_t Send_Data[] = "Infineon";
1185:C:/Users/Mafish/Documents/GitHub/MAB_Controller/Dave/Generated/UART\uart.h ****  *     uint8_t Rec_Data[10];
1186:C:/Users/Mafish/Documents/GitHub/MAB_Controller/Dave/Generated/UART\uart.h ****  *     uint8_t index = 0;
1187:C:/Users/Mafish/Documents/GitHub/MAB_Controller/Dave/Generated/UART\uart.h ****  *
1188:C:/Users/Mafish/Documents/GitHub/MAB_Controller/Dave/Generated/UART\uart.h ****  *     init_status = (UART_STATUS_t)UART_Init(&UART_0);
1189:C:/Users/Mafish/Documents/GitHub/MAB_Controller/Dave/Generated/UART\uart.h ****  *     if(init_status == UART_STATUS_SUCCESS)
1190:C:/Users/Mafish/Documents/GitHub/MAB_Controller/Dave/Generated/UART\uart.h ****  *     {
1191:C:/Users/Mafish/Documents/GitHub/MAB_Controller/Dave/Generated/UART\uart.h ****  *        //Transmit the string "Infineon"
1192:C:/Users/Mafish/Documents/GitHub/MAB_Controller/Dave/Generated/UART\uart.h ****  *        while(index < sizeof(Send_Data))
1193:C:/Users/Mafish/Documents/GitHub/MAB_Controller/Dave/Generated/UART\uart.h ****  *        {
1194:C:/Users/Mafish/Documents/GitHub/MAB_Controller/Dave/Generated/UART\uart.h ****  *           UART_TransmitWord(&UART_0,Send_Data[index]);
1195:C:/Users/Mafish/Documents/GitHub/MAB_Controller/Dave/Generated/UART\uart.h ****  *           index++;
1196:C:/Users/Mafish/Documents/GitHub/MAB_Controller/Dave/Generated/UART\uart.h ****  *
1197:C:/Users/Mafish/Documents/GitHub/MAB_Controller/Dave/Generated/UART\uart.h ****  *           //Wait for transmit buffer interrupt to fill it again with remaining data
1198:C:/Users/Mafish/Documents/GitHub/MAB_Controller/Dave/Generated/UART\uart.h ****  *           while((UART_GetTXFIFOStatus(&UART_0) & XMC_USIC_CH_TXFIFO_EVENT_STANDARD) == 0);
1199:C:/Users/Mafish/Documents/GitHub/MAB_Controller/Dave/Generated/UART\uart.h ****  *           UART_ClearTXFIFOStatus(&UART_0, XMC_USIC_CH_TXFIFO_EVENT_STANDARD);
1200:C:/Users/Mafish/Documents/GitHub/MAB_Controller/Dave/Generated/UART\uart.h ****  *        }
1201:C:/Users/Mafish/Documents/GitHub/MAB_Controller/Dave/Generated/UART\uart.h ****  *
1202:C:/Users/Mafish/Documents/GitHub/MAB_Controller/Dave/Generated/UART\uart.h ****  *        //Configure receive FIFO trigger limit to 9.
1203:C:/Users/Mafish/Documents/GitHub/MAB_Controller/Dave/Generated/UART\uart.h ****  *        UART_SetRXFIFOTriggerLimit(&UART_0, 9);
1204:C:/Users/Mafish/Documents/GitHub/MAB_Controller/Dave/Generated/UART\uart.h ****  *        //Receive 10 bytes input
1205:C:/Users/Mafish/Documents/GitHub/MAB_Controller/Dave/Generated/UART\uart.h ****  *        index = 0;
1206:C:/Users/Mafish/Documents/GitHub/MAB_Controller/Dave/Generated/UART\uart.h ****  *        //Wait till 10 bytes are received
1207:C:/Users/Mafish/Documents/GitHub/MAB_Controller/Dave/Generated/UART\uart.h ****  *        while(!(UART_GetRXFIFOStatus(&UART_0) &
1208:C:/Users/Mafish/Documents/GitHub/MAB_Controller/Dave/Generated/UART\uart.h ****  *             (XMC_USIC_CH_RXFIFO_EVENT_STANDARD | XMC_USIC_CH_RXFIFO_EVENT_ALTERNATE)))
1209:C:/Users/Mafish/Documents/GitHub/MAB_Controller/Dave/Generated/UART\uart.h ****  *        {
1210:C:/Users/Mafish/Documents/GitHub/MAB_Controller/Dave/Generated/UART\uart.h ****  *          Rec_Data[index] = UART_GetReceivedWord(&UART_0);
1211:C:/Users/Mafish/Documents/GitHub/MAB_Controller/Dave/Generated/UART\uart.h ****  *          index++;
1212:C:/Users/Mafish/Documents/GitHub/MAB_Controller/Dave/Generated/UART\uart.h ****  *          if(index == 10)
1213:C:/Users/Mafish/Documents/GitHub/MAB_Controller/Dave/Generated/UART\uart.h ****  *          {
1214:C:/Users/Mafish/Documents/GitHub/MAB_Controller/Dave/Generated/UART\uart.h ****  *            break;
1215:C:/Users/Mafish/Documents/GitHub/MAB_Controller/Dave/Generated/UART\uart.h ****  *          }
1216:C:/Users/Mafish/Documents/GitHub/MAB_Controller/Dave/Generated/UART\uart.h ****  *
1217:C:/Users/Mafish/Documents/GitHub/MAB_Controller/Dave/Generated/UART\uart.h ****  *        }
1218:C:/Users/Mafish/Documents/GitHub/MAB_Controller/Dave/Generated/UART\uart.h ****  *
1219:C:/Users/Mafish/Documents/GitHub/MAB_Controller/Dave/Generated/UART\uart.h ****  *        //Transmit the received data
1220:C:/Users/Mafish/Documents/GitHub/MAB_Controller/Dave/Generated/UART\uart.h ****  *        index = 0;
1221:C:/Users/Mafish/Documents/GitHub/MAB_Controller/Dave/Generated/UART\uart.h ****  *        while(index < 10)
1222:C:/Users/Mafish/Documents/GitHub/MAB_Controller/Dave/Generated/UART\uart.h ****  *        {
1223:C:/Users/Mafish/Documents/GitHub/MAB_Controller/Dave/Generated/UART\uart.h ****  *           UART_TransmitWord(&UART_0,Rec_Data[index]);
1224:C:/Users/Mafish/Documents/GitHub/MAB_Controller/Dave/Generated/UART\uart.h ****  *           index++;
1225:C:/Users/Mafish/Documents/GitHub/MAB_Controller/Dave/Generated/UART\uart.h ****  *
1226:C:/Users/Mafish/Documents/GitHub/MAB_Controller/Dave/Generated/UART\uart.h ****  *           //Wait for transmit buffer interrupt to fill it again with remaining data
1227:C:/Users/Mafish/Documents/GitHub/MAB_Controller/Dave/Generated/UART\uart.h ****  *           while((UART_GetTXFIFOStatus(&UART_0) & XMC_USIC_CH_TXFIFO_EVENT_STANDARD) == 0);
1228:C:/Users/Mafish/Documents/GitHub/MAB_Controller/Dave/Generated/UART\uart.h ****  *           UART_ClearTXFIFOStatus(&UART_0, XMC_USIC_CH_TXFIFO_EVENT_STANDARD);
1229:C:/Users/Mafish/Documents/GitHub/MAB_Controller/Dave/Generated/UART\uart.h ****  *        }
1230:C:/Users/Mafish/Documents/GitHub/MAB_Controller/Dave/Generated/UART\uart.h ****  *
1231:C:/Users/Mafish/Documents/GitHub/MAB_Controller/Dave/Generated/UART\uart.h ****  *     }
1232:C:/Users/Mafish/Documents/GitHub/MAB_Controller/Dave/Generated/UART\uart.h ****  *     else
1233:C:/Users/Mafish/Documents/GitHub/MAB_Controller/Dave/Generated/UART\uart.h ****  *     {
1234:C:/Users/Mafish/Documents/GitHub/MAB_Controller/Dave/Generated/UART\uart.h ****  *      XMC_DEBUG("main: Application initialization failed");
1235:C:/Users/Mafish/Documents/GitHub/MAB_Controller/Dave/Generated/UART\uart.h ****  *      while(1U)
1236:C:/Users/Mafish/Documents/GitHub/MAB_Controller/Dave/Generated/UART\uart.h ****  *      {
1237:C:/Users/Mafish/Documents/GitHub/MAB_Controller/Dave/Generated/UART\uart.h ****  *      }
1238:C:/Users/Mafish/Documents/GitHub/MAB_Controller/Dave/Generated/UART\uart.h ****  *     }
1239:C:/Users/Mafish/Documents/GitHub/MAB_Controller/Dave/Generated/UART\uart.h ****  *      return 1U;
1240:C:/Users/Mafish/Documents/GitHub/MAB_Controller/Dave/Generated/UART\uart.h ****  *  }
1241:C:/Users/Mafish/Documents/GitHub/MAB_Controller/Dave/Generated/UART\uart.h ****  * @endcode
1242:C:/Users/Mafish/Documents/GitHub/MAB_Controller/Dave/Generated/UART\uart.h ****  *
1243:C:/Users/Mafish/Documents/GitHub/MAB_Controller/Dave/Generated/UART\uart.h ****  */
1244:C:/Users/Mafish/Documents/GitHub/MAB_Controller/Dave/Generated/UART\uart.h **** __STATIC_INLINE uint8_t UART_GetReceivedWord(const UART_t* const handle)
1245:C:/Users/Mafish/Documents/GitHub/MAB_Controller/Dave/Generated/UART\uart.h **** {
1246:C:/Users/Mafish/Documents/GitHub/MAB_Controller/Dave/Generated/UART\uart.h ****   XMC_ASSERT("UART APP handle invalid", (handle != NULL))
1247:C:/Users/Mafish/Documents/GitHub/MAB_Controller/Dave/Generated/UART\uart.h ****   return (uint8_t)XMC_UART_CH_GetReceivedData(handle->channel);
1248:C:/Users/Mafish/Documents/GitHub/MAB_Controller/Dave/Generated/UART\uart.h **** }
1249:C:/Users/Mafish/Documents/GitHub/MAB_Controller/Dave/Generated/UART\uart.h **** 
1250:C:/Users/Mafish/Documents/GitHub/MAB_Controller/Dave/Generated/UART\uart.h **** /**
1251:C:/Users/Mafish/Documents/GitHub/MAB_Controller/Dave/Generated/UART\uart.h ****  * @brief Transmits a word of data.
1252:C:/Users/Mafish/Documents/GitHub/MAB_Controller/Dave/Generated/UART\uart.h ****  *
1253:C:/Users/Mafish/Documents/GitHub/MAB_Controller/Dave/Generated/UART\uart.h ****  * @param  handle UART APP handle pointer of type @ref UART_t \n
1254:C:/Users/Mafish/Documents/GitHub/MAB_Controller/Dave/Generated/UART\uart.h ****  * @param data Data to be transmitted.\n
1255:C:/Users/Mafish/Documents/GitHub/MAB_Controller/Dave/Generated/UART\uart.h ****  * @return None\n
1256:C:/Users/Mafish/Documents/GitHub/MAB_Controller/Dave/Generated/UART\uart.h ****  *
1257:C:/Users/Mafish/Documents/GitHub/MAB_Controller/Dave/Generated/UART\uart.h ****  * \par<b>Description:</b><br>
1258:C:/Users/Mafish/Documents/GitHub/MAB_Controller/Dave/Generated/UART\uart.h ****  * Transmits a byte of data through the UART channel.
1259:C:/Users/Mafish/Documents/GitHub/MAB_Controller/Dave/Generated/UART\uart.h ****  * If Tx FIFO is configured, the data is placed in the IN[0] register of the USIC channel used.
1260:C:/Users/Mafish/Documents/GitHub/MAB_Controller/Dave/Generated/UART\uart.h ****  * If Tx FIFO is not configured, API waits for the TBUF to be free and then places the data in the 
1261:C:/Users/Mafish/Documents/GitHub/MAB_Controller/Dave/Generated/UART\uart.h ****  * User can poll for receive event or configure interrupt by connecting an
1262:C:/Users/Mafish/Documents/GitHub/MAB_Controller/Dave/Generated/UART\uart.h ****  * external INTERRUPT APP. This API can be used inside the ISR to read the received data.
1263:C:/Users/Mafish/Documents/GitHub/MAB_Controller/Dave/Generated/UART\uart.h ****  *
1264:C:/Users/Mafish/Documents/GitHub/MAB_Controller/Dave/Generated/UART\uart.h ****  * Example Usage:
1265:C:/Users/Mafish/Documents/GitHub/MAB_Controller/Dave/Generated/UART\uart.h ****  * @code
1266:C:/Users/Mafish/Documents/GitHub/MAB_Controller/Dave/Generated/UART\uart.h ****  *   #include <DAVE.h>         //Declarations from DAVE Code Generation (includes SFR declaration)
1267:C:/Users/Mafish/Documents/GitHub/MAB_Controller/Dave/Generated/UART\uart.h ****  *
1268:C:/Users/Mafish/Documents/GitHub/MAB_Controller/Dave/Generated/UART\uart.h ****  *   //Precondition:
1269:C:/Users/Mafish/Documents/GitHub/MAB_Controller/Dave/Generated/UART\uart.h ****  *   //Configure transmit mode and receive mode as "Direct"
1270:C:/Users/Mafish/Documents/GitHub/MAB_Controller/Dave/Generated/UART\uart.h ****  *   //Description:
1271:C:/Users/Mafish/Documents/GitHub/MAB_Controller/Dave/Generated/UART\uart.h ****  *   //Transmits the string "Infinon"
1272:C:/Users/Mafish/Documents/GitHub/MAB_Controller/Dave/Generated/UART\uart.h ****  *
1273:C:/Users/Mafish/Documents/GitHub/MAB_Controller/Dave/Generated/UART\uart.h ****  *   int main(void)
1274:C:/Users/Mafish/Documents/GitHub/MAB_Controller/Dave/Generated/UART\uart.h ****  *   {
1275:C:/Users/Mafish/Documents/GitHub/MAB_Controller/Dave/Generated/UART\uart.h ****  *     UART_STATUS_t init_status;
1276:C:/Users/Mafish/Documents/GitHub/MAB_Controller/Dave/Generated/UART\uart.h ****  *     uint8_t Send_Data[] = "Infineon";
1277:C:/Users/Mafish/Documents/GitHub/MAB_Controller/Dave/Generated/UART\uart.h ****  *     uint8_t Rec_Data[10];
1278:C:/Users/Mafish/Documents/GitHub/MAB_Controller/Dave/Generated/UART\uart.h ****  *     uint8_t index = 0;
1279:C:/Users/Mafish/Documents/GitHub/MAB_Controller/Dave/Generated/UART\uart.h ****  *
1280:C:/Users/Mafish/Documents/GitHub/MAB_Controller/Dave/Generated/UART\uart.h ****  *     init_status = (UART_STATUS_t)UART_Init(&UART_0);
1281:C:/Users/Mafish/Documents/GitHub/MAB_Controller/Dave/Generated/UART\uart.h ****  *     if(init_status == UART_STATUS_SUCCESS)
1282:C:/Users/Mafish/Documents/GitHub/MAB_Controller/Dave/Generated/UART\uart.h ****  *     {
1283:C:/Users/Mafish/Documents/GitHub/MAB_Controller/Dave/Generated/UART\uart.h ****  *        while(index < sizeof(Send_Data))
1284:C:/Users/Mafish/Documents/GitHub/MAB_Controller/Dave/Generated/UART\uart.h ****  *        {
1285:C:/Users/Mafish/Documents/GitHub/MAB_Controller/Dave/Generated/UART\uart.h ****  *           UART_TransmitWord(&UART_0,Send_Data[index]);
1286:C:/Users/Mafish/Documents/GitHub/MAB_Controller/Dave/Generated/UART\uart.h ****  *           index++;
1287:C:/Users/Mafish/Documents/GitHub/MAB_Controller/Dave/Generated/UART\uart.h ****  *
1288:C:/Users/Mafish/Documents/GitHub/MAB_Controller/Dave/Generated/UART\uart.h ****  *           //Wait for transmit buffer interrupt to fill it again with remaining data
1289:C:/Users/Mafish/Documents/GitHub/MAB_Controller/Dave/Generated/UART\uart.h ****  *           while((UART_GetTXFIFOStatus(&UART_0) & XMC_USIC_CH_TXFIFO_EVENT_STANDARD) == 0);
1290:C:/Users/Mafish/Documents/GitHub/MAB_Controller/Dave/Generated/UART\uart.h ****  *           UART_ClearTXFIFOStatus(&UART_0, XMC_USIC_CH_TXFIFO_EVENT_STANDARD);
1291:C:/Users/Mafish/Documents/GitHub/MAB_Controller/Dave/Generated/UART\uart.h ****  *        }
1292:C:/Users/Mafish/Documents/GitHub/MAB_Controller/Dave/Generated/UART\uart.h ****  *     }
1293:C:/Users/Mafish/Documents/GitHub/MAB_Controller/Dave/Generated/UART\uart.h ****  *     else
1294:C:/Users/Mafish/Documents/GitHub/MAB_Controller/Dave/Generated/UART\uart.h ****  *     {
1295:C:/Users/Mafish/Documents/GitHub/MAB_Controller/Dave/Generated/UART\uart.h ****  *      XMC_DEBUG("main: Application initialization failed");
1296:C:/Users/Mafish/Documents/GitHub/MAB_Controller/Dave/Generated/UART\uart.h ****  *      while(1U)
1297:C:/Users/Mafish/Documents/GitHub/MAB_Controller/Dave/Generated/UART\uart.h ****  *      {
1298:C:/Users/Mafish/Documents/GitHub/MAB_Controller/Dave/Generated/UART\uart.h ****  *      }
1299:C:/Users/Mafish/Documents/GitHub/MAB_Controller/Dave/Generated/UART\uart.h ****  *     }
1300:C:/Users/Mafish/Documents/GitHub/MAB_Controller/Dave/Generated/UART\uart.h ****  *      return 1U;
1301:C:/Users/Mafish/Documents/GitHub/MAB_Controller/Dave/Generated/UART\uart.h ****  *  }
1302:C:/Users/Mafish/Documents/GitHub/MAB_Controller/Dave/Generated/UART\uart.h ****  * @endcode
1303:C:/Users/Mafish/Documents/GitHub/MAB_Controller/Dave/Generated/UART\uart.h ****  *
1304:C:/Users/Mafish/Documents/GitHub/MAB_Controller/Dave/Generated/UART\uart.h ****  */
1305:C:/Users/Mafish/Documents/GitHub/MAB_Controller/Dave/Generated/UART\uart.h **** __STATIC_INLINE void UART_TransmitWord(const UART_t* const handle, uint8_t data)
1306:C:/Users/Mafish/Documents/GitHub/MAB_Controller/Dave/Generated/UART\uart.h **** {
1307:C:/Users/Mafish/Documents/GitHub/MAB_Controller/Dave/Generated/UART\uart.h ****   XMC_ASSERT("UART APP handle invalid", (handle != NULL))
1308:C:/Users/Mafish/Documents/GitHub/MAB_Controller/Dave/Generated/UART\uart.h ****   XMC_UART_CH_Transmit(handle->channel, (uint16_t)data);
1309:C:/Users/Mafish/Documents/GitHub/MAB_Controller/Dave/Generated/UART\uart.h **** }
1310:C:/Users/Mafish/Documents/GitHub/MAB_Controller/Dave/Generated/UART\uart.h **** 
1311:C:/Users/Mafish/Documents/GitHub/MAB_Controller/Dave/Generated/UART\uart.h **** /**
1312:C:/Users/Mafish/Documents/GitHub/MAB_Controller/Dave/Generated/UART\uart.h ****  * @brief Enables the selected protocol events for interrupt generation.
1313:C:/Users/Mafish/Documents/GitHub/MAB_Controller/Dave/Generated/UART\uart.h ****  *
1314:C:/Users/Mafish/Documents/GitHub/MAB_Controller/Dave/Generated/UART\uart.h ****  * @param  handle UART APP handle pointer of type @ref UART_t
1315:C:/Users/Mafish/Documents/GitHub/MAB_Controller/Dave/Generated/UART\uart.h ****  * @param  events Protocol events to be enabled for interrupt generation. \n
1316:C:/Users/Mafish/Documents/GitHub/MAB_Controller/Dave/Generated/UART\uart.h ****  *         \bRange: Use type \aXMC_UART_CH_EVENT_t to select the event. Multiple events can be
1317:C:/Users/Mafish/Documents/GitHub/MAB_Controller/Dave/Generated/UART\uart.h ****  *         combined using the bitwise OR operation.\n
1318:C:/Users/Mafish/Documents/GitHub/MAB_Controller/Dave/Generated/UART\uart.h ****  * @return None\n
1319:C:/Users/Mafish/Documents/GitHub/MAB_Controller/Dave/Generated/UART\uart.h ****  *
1320:C:/Users/Mafish/Documents/GitHub/MAB_Controller/Dave/Generated/UART\uart.h ****  * \par<b>Description:</b><br>
1321:C:/Users/Mafish/Documents/GitHub/MAB_Controller/Dave/Generated/UART\uart.h ****  * Enables the events by configuring CCR or PCR register based on the event.
1322:C:/Users/Mafish/Documents/GitHub/MAB_Controller/Dave/Generated/UART\uart.h ****  * When the event is enabled, an interrupt can be generated on occurrence of the event.
1323:C:/Users/Mafish/Documents/GitHub/MAB_Controller/Dave/Generated/UART\uart.h ****  * The API should be used only for \a Direct mode related events. Using this API for non \a Direct 
1324:C:/Users/Mafish/Documents/GitHub/MAB_Controller/Dave/Generated/UART\uart.h ****  * may not yield expected result.
1325:C:/Users/Mafish/Documents/GitHub/MAB_Controller/Dave/Generated/UART\uart.h ****  *
1326:C:/Users/Mafish/Documents/GitHub/MAB_Controller/Dave/Generated/UART\uart.h ****  * Example Usage:
1327:C:/Users/Mafish/Documents/GitHub/MAB_Controller/Dave/Generated/UART\uart.h ****  * @code
1328:C:/Users/Mafish/Documents/GitHub/MAB_Controller/Dave/Generated/UART\uart.h ****  * * #include <DAVE.h>                 //Declarations from DAVE Code Generation (includes SFR decla
1329:C:/Users/Mafish/Documents/GitHub/MAB_Controller/Dave/Generated/UART\uart.h ****  *
1330:C:/Users/Mafish/Documents/GitHub/MAB_Controller/Dave/Generated/UART\uart.h ****  * // Precondition:
1331:C:/Users/Mafish/Documents/GitHub/MAB_Controller/Dave/Generated/UART\uart.h ****  * // Disable receive FIFO.
1332:C:/Users/Mafish/Documents/GitHub/MAB_Controller/Dave/Generated/UART\uart.h ****  * // Add INTERRUPT APP and connect the UART APP protocol interrupt signal to the INTERRUPT APP
1333:C:/Users/Mafish/Documents/GitHub/MAB_Controller/Dave/Generated/UART\uart.h ****  * // irq signal. Provide the callback function name in INTERRUPT APP as "ProtocolInterrupt".
1334:C:/Users/Mafish/Documents/GitHub/MAB_Controller/Dave/Generated/UART\uart.h ****  * //
1335:C:/Users/Mafish/Documents/GitHub/MAB_Controller/Dave/Generated/UART\uart.h ****  * // Description:
1336:C:/Users/Mafish/Documents/GitHub/MAB_Controller/Dave/Generated/UART\uart.h ****  * // Generates an event when data loss is detected and transmits a relevent message.
1337:C:/Users/Mafish/Documents/GitHub/MAB_Controller/Dave/Generated/UART\uart.h ****  * // To generate the event, transmit more than 2 bytes of data to the UART channel .
1338:C:/Users/Mafish/Documents/GitHub/MAB_Controller/Dave/Generated/UART\uart.h ****  *
1339:C:/Users/Mafish/Documents/GitHub/MAB_Controller/Dave/Generated/UART\uart.h ****  * int main(void)
1340:C:/Users/Mafish/Documents/GitHub/MAB_Controller/Dave/Generated/UART\uart.h ****  * {
1341:C:/Users/Mafish/Documents/GitHub/MAB_Controller/Dave/Generated/UART\uart.h ****  *   DAVE_STATUS_t status;
1342:C:/Users/Mafish/Documents/GitHub/MAB_Controller/Dave/Generated/UART\uart.h ****  *
1343:C:/Users/Mafish/Documents/GitHub/MAB_Controller/Dave/Generated/UART\uart.h ****  *   status = DAVE_Init();
1344:C:/Users/Mafish/Documents/GitHub/MAB_Controller/Dave/Generated/UART\uart.h ****  *
1345:C:/Users/Mafish/Documents/GitHub/MAB_Controller/Dave/Generated/UART\uart.h ****  *   if(status == DAVE_STATUS_FAILURE)
1346:C:/Users/Mafish/Documents/GitHub/MAB_Controller/Dave/Generated/UART\uart.h ****  *   {
1347:C:/Users/Mafish/Documents/GitHub/MAB_Controller/Dave/Generated/UART\uart.h ****  *     XMC_DEBUG("DAVE APPs initialization failed\n");
1348:C:/Users/Mafish/Documents/GitHub/MAB_Controller/Dave/Generated/UART\uart.h ****  *
1349:C:/Users/Mafish/Documents/GitHub/MAB_Controller/Dave/Generated/UART\uart.h ****  *     while(1U)
1350:C:/Users/Mafish/Documents/GitHub/MAB_Controller/Dave/Generated/UART\uart.h ****  *     {
1351:C:/Users/Mafish/Documents/GitHub/MAB_Controller/Dave/Generated/UART\uart.h ****  *
1352:C:/Users/Mafish/Documents/GitHub/MAB_Controller/Dave/Generated/UART\uart.h ****  *     }
1353:C:/Users/Mafish/Documents/GitHub/MAB_Controller/Dave/Generated/UART\uart.h ****  *   }
1354:C:/Users/Mafish/Documents/GitHub/MAB_Controller/Dave/Generated/UART\uart.h ****  *   //Enable the interrupt generation when data loss is detected.
1355:C:/Users/Mafish/Documents/GitHub/MAB_Controller/Dave/Generated/UART\uart.h ****  *   UART_EnableEvent(&UART_0, XMC_UART_CH_EVENT_DATA_LOST);
1356:C:/Users/Mafish/Documents/GitHub/MAB_Controller/Dave/Generated/UART\uart.h ****  *   while(1U)
1357:C:/Users/Mafish/Documents/GitHub/MAB_Controller/Dave/Generated/UART\uart.h ****  *   {
1358:C:/Users/Mafish/Documents/GitHub/MAB_Controller/Dave/Generated/UART\uart.h ****  *   }
1359:C:/Users/Mafish/Documents/GitHub/MAB_Controller/Dave/Generated/UART\uart.h ****  * }
1360:C:/Users/Mafish/Documents/GitHub/MAB_Controller/Dave/Generated/UART\uart.h ****  * //Protocol interrupt handler
1361:C:/Users/Mafish/Documents/GitHub/MAB_Controller/Dave/Generated/UART\uart.h ****  * void ProtocolInterrupt()
1362:C:/Users/Mafish/Documents/GitHub/MAB_Controller/Dave/Generated/UART\uart.h ****  * {
1363:C:/Users/Mafish/Documents/GitHub/MAB_Controller/Dave/Generated/UART\uart.h ****  *   uint8_t txt_msg[]="Receiver data loss detected";
1364:C:/Users/Mafish/Documents/GitHub/MAB_Controller/Dave/Generated/UART\uart.h ****  *   //Transmit the message to indicate data loss
1365:C:/Users/Mafish/Documents/GitHub/MAB_Controller/Dave/Generated/UART\uart.h ****  *   UART_Transmit(&UART_0, txt_msg, sizeof(txt_msg));
1366:C:/Users/Mafish/Documents/GitHub/MAB_Controller/Dave/Generated/UART\uart.h ****  * }
1367:C:/Users/Mafish/Documents/GitHub/MAB_Controller/Dave/Generated/UART\uart.h ****  * @endcode
1368:C:/Users/Mafish/Documents/GitHub/MAB_Controller/Dave/Generated/UART\uart.h ****  */
1369:C:/Users/Mafish/Documents/GitHub/MAB_Controller/Dave/Generated/UART\uart.h **** __STATIC_INLINE void UART_EnableEvent(const UART_t* const handle, uint32_t events)
1370:C:/Users/Mafish/Documents/GitHub/MAB_Controller/Dave/Generated/UART\uart.h **** {
1371:C:/Users/Mafish/Documents/GitHub/MAB_Controller/Dave/Generated/UART\uart.h ****   XMC_ASSERT("UART APP handle invalid", (handle != NULL))
1372:C:/Users/Mafish/Documents/GitHub/MAB_Controller/Dave/Generated/UART\uart.h ****   XMC_UART_CH_EnableEvent(handle->channel, events);
1373:C:/Users/Mafish/Documents/GitHub/MAB_Controller/Dave/Generated/UART\uart.h **** }
1374:C:/Users/Mafish/Documents/GitHub/MAB_Controller/Dave/Generated/UART\uart.h **** 
1375:C:/Users/Mafish/Documents/GitHub/MAB_Controller/Dave/Generated/UART\uart.h **** /**
1376:C:/Users/Mafish/Documents/GitHub/MAB_Controller/Dave/Generated/UART\uart.h ****  * @brief Disables selected events from generating interrupt.
1377:C:/Users/Mafish/Documents/GitHub/MAB_Controller/Dave/Generated/UART\uart.h ****  *
1378:C:/Users/Mafish/Documents/GitHub/MAB_Controller/Dave/Generated/UART\uart.h ****  * @param  handle UART APP handle pointer of type @ref UART_t
1379:C:/Users/Mafish/Documents/GitHub/MAB_Controller/Dave/Generated/UART\uart.h ****  * @param  events Events to be disabled from generating interrupt. \n
1380:C:/Users/Mafish/Documents/GitHub/MAB_Controller/Dave/Generated/UART\uart.h ****  *         \bRange: Use type \aXMC_UART_CH_EVENT_t to select the event. Multiple events can be
1381:C:/Users/Mafish/Documents/GitHub/MAB_Controller/Dave/Generated/UART\uart.h ****  *         combined using the bitwise OR operation.\n
1382:C:/Users/Mafish/Documents/GitHub/MAB_Controller/Dave/Generated/UART\uart.h ****  * @return None
1383:C:/Users/Mafish/Documents/GitHub/MAB_Controller/Dave/Generated/UART\uart.h ****  *
1384:C:/Users/Mafish/Documents/GitHub/MAB_Controller/Dave/Generated/UART\uart.h ****  * \par<b>Description:</b><br>
1385:C:/Users/Mafish/Documents/GitHub/MAB_Controller/Dave/Generated/UART\uart.h ****  * Events are disabled by clearing their respective bits in either CCR, TBCTR or RBCTR.
1386:C:/Users/Mafish/Documents/GitHub/MAB_Controller/Dave/Generated/UART\uart.h ****  *
1387:C:/Users/Mafish/Documents/GitHub/MAB_Controller/Dave/Generated/UART\uart.h ****  * Example Usage:
1388:C:/Users/Mafish/Documents/GitHub/MAB_Controller/Dave/Generated/UART\uart.h ****  * @code
1389:C:/Users/Mafish/Documents/GitHub/MAB_Controller/Dave/Generated/UART\uart.h ****  * #include <DAVE.h>                 //Declarations from DAVE Code Generation (includes SFR declara
1390:C:/Users/Mafish/Documents/GitHub/MAB_Controller/Dave/Generated/UART\uart.h ****  *
1391:C:/Users/Mafish/Documents/GitHub/MAB_Controller/Dave/Generated/UART\uart.h ****  * // Precondition:
1392:C:/Users/Mafish/Documents/GitHub/MAB_Controller/Dave/Generated/UART\uart.h ****  * // Add INTERRUPT APP and connect the UART APP protocol interrupt signal to the INTERRUPT APP
1393:C:/Users/Mafish/Documents/GitHub/MAB_Controller/Dave/Generated/UART\uart.h ****  * // irq signal. Provide the callback function name in INTERRUPT APP as "ProtocolInterrupt".
1394:C:/Users/Mafish/Documents/GitHub/MAB_Controller/Dave/Generated/UART\uart.h ****  * //
1395:C:/Users/Mafish/Documents/GitHub/MAB_Controller/Dave/Generated/UART\uart.h ****  * // Description: The example configures protocol interrupt for data loss detection.
1396:C:/Users/Mafish/Documents/GitHub/MAB_Controller/Dave/Generated/UART\uart.h ****  * // When the data loss interrupt occurs, the receive FIFO is cleared. After the receive FIFO
1397:C:/Users/Mafish/Documents/GitHub/MAB_Controller/Dave/Generated/UART\uart.h ****  * // is cleared, the channel can receive few bytes till the FIFO gets filled.
1398:C:/Users/Mafish/Documents/GitHub/MAB_Controller/Dave/Generated/UART\uart.h ****  *
1399:C:/Users/Mafish/Documents/GitHub/MAB_Controller/Dave/Generated/UART\uart.h ****  * int main(void)
1400:C:/Users/Mafish/Documents/GitHub/MAB_Controller/Dave/Generated/UART\uart.h ****  * {
1401:C:/Users/Mafish/Documents/GitHub/MAB_Controller/Dave/Generated/UART\uart.h ****  *   DAVE_STATUS_t status;
1402:C:/Users/Mafish/Documents/GitHub/MAB_Controller/Dave/Generated/UART\uart.h ****  *
1403:C:/Users/Mafish/Documents/GitHub/MAB_Controller/Dave/Generated/UART\uart.h ****  *   status = DAVE_Init();
1404:C:/Users/Mafish/Documents/GitHub/MAB_Controller/Dave/Generated/UART\uart.h ****  *
1405:C:/Users/Mafish/Documents/GitHub/MAB_Controller/Dave/Generated/UART\uart.h ****  *   if(status == DAVE_STATUS_FAILURE)
1406:C:/Users/Mafish/Documents/GitHub/MAB_Controller/Dave/Generated/UART\uart.h ****  *   {
1407:C:/Users/Mafish/Documents/GitHub/MAB_Controller/Dave/Generated/UART\uart.h ****  *     XMC_DEBUG("DAVE APPs initialization failed\n");
1408:C:/Users/Mafish/Documents/GitHub/MAB_Controller/Dave/Generated/UART\uart.h ****  *
1409:C:/Users/Mafish/Documents/GitHub/MAB_Controller/Dave/Generated/UART\uart.h ****  *     while(1U)
1410:C:/Users/Mafish/Documents/GitHub/MAB_Controller/Dave/Generated/UART\uart.h ****  *     {
1411:C:/Users/Mafish/Documents/GitHub/MAB_Controller/Dave/Generated/UART\uart.h ****  *
1412:C:/Users/Mafish/Documents/GitHub/MAB_Controller/Dave/Generated/UART\uart.h ****  *     }
1413:C:/Users/Mafish/Documents/GitHub/MAB_Controller/Dave/Generated/UART\uart.h ****  *   }
1414:C:/Users/Mafish/Documents/GitHub/MAB_Controller/Dave/Generated/UART\uart.h ****  *   //Enable interrupt generation when data loss is detected
1415:C:/Users/Mafish/Documents/GitHub/MAB_Controller/Dave/Generated/UART\uart.h ****  *   UART_EnableEvent(&UART_0, XMC_UART_CH_EVENT_DATA_LOST);
1416:C:/Users/Mafish/Documents/GitHub/MAB_Controller/Dave/Generated/UART\uart.h ****  *   while(1U)
1417:C:/Users/Mafish/Documents/GitHub/MAB_Controller/Dave/Generated/UART\uart.h ****  *   {
1418:C:/Users/Mafish/Documents/GitHub/MAB_Controller/Dave/Generated/UART\uart.h ****  *   }
1419:C:/Users/Mafish/Documents/GitHub/MAB_Controller/Dave/Generated/UART\uart.h ****  * }
1420:C:/Users/Mafish/Documents/GitHub/MAB_Controller/Dave/Generated/UART\uart.h ****  * void ProtocolInterrupt()
1421:C:/Users/Mafish/Documents/GitHub/MAB_Controller/Dave/Generated/UART\uart.h ****  * {
1422:C:/Users/Mafish/Documents/GitHub/MAB_Controller/Dave/Generated/UART\uart.h ****  *   uint8_t txt_msg[]="Receiver data loss detected";
1423:C:/Users/Mafish/Documents/GitHub/MAB_Controller/Dave/Generated/UART\uart.h ****  *   UART_Transmit(&UART_0, txt_msg, sizeof(txt_msg));
1424:C:/Users/Mafish/Documents/GitHub/MAB_Controller/Dave/Generated/UART\uart.h ****  *   UART_DisableEvent(&UART_0, XMC_UART_CH_EVENT_DATA_LOST);
1425:C:/Users/Mafish/Documents/GitHub/MAB_Controller/Dave/Generated/UART\uart.h ****  *   //Clear receive FIFO so that data will be received.
1426:C:/Users/Mafish/Documents/GitHub/MAB_Controller/Dave/Generated/UART\uart.h ****  *   XMC_USIC_CH_RXFIFO_Flush(UART_0.channel);
1427:C:/Users/Mafish/Documents/GitHub/MAB_Controller/Dave/Generated/UART\uart.h ****  *   UART_EnableEvent(&UART_0, XMC_UART_CH_EVENT_DATA_LOST);
1428:C:/Users/Mafish/Documents/GitHub/MAB_Controller/Dave/Generated/UART\uart.h ****  * }
1429:C:/Users/Mafish/Documents/GitHub/MAB_Controller/Dave/Generated/UART\uart.h ****  * @endcode
1430:C:/Users/Mafish/Documents/GitHub/MAB_Controller/Dave/Generated/UART\uart.h ****  *
1431:C:/Users/Mafish/Documents/GitHub/MAB_Controller/Dave/Generated/UART\uart.h ****  */
1432:C:/Users/Mafish/Documents/GitHub/MAB_Controller/Dave/Generated/UART\uart.h **** __STATIC_INLINE void UART_DisableEvent(const UART_t* const handle, uint32_t events)
1433:C:/Users/Mafish/Documents/GitHub/MAB_Controller/Dave/Generated/UART\uart.h **** {
1434:C:/Users/Mafish/Documents/GitHub/MAB_Controller/Dave/Generated/UART\uart.h ****   XMC_ASSERT("UART APP handle invalid", (handle != NULL))
1435:C:/Users/Mafish/Documents/GitHub/MAB_Controller/Dave/Generated/UART\uart.h ****   XMC_UART_CH_DisableEvent(handle->channel, events);
1436:C:/Users/Mafish/Documents/GitHub/MAB_Controller/Dave/Generated/UART\uart.h **** }
1437:C:/Users/Mafish/Documents/GitHub/MAB_Controller/Dave/Generated/UART\uart.h **** 
1438:C:/Users/Mafish/Documents/GitHub/MAB_Controller/Dave/Generated/UART\uart.h **** /**
1439:C:/Users/Mafish/Documents/GitHub/MAB_Controller/Dave/Generated/UART\uart.h ****  * @brief Checks if the transmit FIFO is full.
1440:C:/Users/Mafish/Documents/GitHub/MAB_Controller/Dave/Generated/UART\uart.h ****  *
1441:C:/Users/Mafish/Documents/GitHub/MAB_Controller/Dave/Generated/UART\uart.h ****  * @param  handle UART APP handle pointer of type @ref UART_t
1442:C:/Users/Mafish/Documents/GitHub/MAB_Controller/Dave/Generated/UART\uart.h ****  *
1443:C:/Users/Mafish/Documents/GitHub/MAB_Controller/Dave/Generated/UART\uart.h ****  * @return bool Status of transmit FIFO filling level.
1444:C:/Users/Mafish/Documents/GitHub/MAB_Controller/Dave/Generated/UART\uart.h ****  *              \bRange: \atrue- if transmit FIFO is full.<br>
1445:C:/Users/Mafish/Documents/GitHub/MAB_Controller/Dave/Generated/UART\uart.h ****  *                       \afalse- if transmit FIFO is not full.<br>
1446:C:/Users/Mafish/Documents/GitHub/MAB_Controller/Dave/Generated/UART\uart.h ****  * \par<b>Description:</b><br>
1447:C:/Users/Mafish/Documents/GitHub/MAB_Controller/Dave/Generated/UART\uart.h ****  * Checks the status using the register TRBSR. Can be used while filling
1448:C:/Users/Mafish/Documents/GitHub/MAB_Controller/Dave/Generated/UART\uart.h ****  * data to the transmit FIFO.
1449:C:/Users/Mafish/Documents/GitHub/MAB_Controller/Dave/Generated/UART\uart.h ****  *
1450:C:/Users/Mafish/Documents/GitHub/MAB_Controller/Dave/Generated/UART\uart.h ****  * Example Usage:
1451:C:/Users/Mafish/Documents/GitHub/MAB_Controller/Dave/Generated/UART\uart.h ****  * @code
1452:C:/Users/Mafish/Documents/GitHub/MAB_Controller/Dave/Generated/UART\uart.h ****  *  #include <DAVE.h>                 //Declarations from DAVE Code Generation (includes SFR declar
1453:C:/Users/Mafish/Documents/GitHub/MAB_Controller/Dave/Generated/UART\uart.h ****  *
1454:C:/Users/Mafish/Documents/GitHub/MAB_Controller/Dave/Generated/UART\uart.h ****  *  // Precondition:
1455:C:/Users/Mafish/Documents/GitHub/MAB_Controller/Dave/Generated/UART\uart.h ****  *  // Transmit mode should be "Direct"
1456:C:/Users/Mafish/Documents/GitHub/MAB_Controller/Dave/Generated/UART\uart.h ****  *  //Description:
1457:C:/Users/Mafish/Documents/GitHub/MAB_Controller/Dave/Generated/UART\uart.h ****  *  //Transmits a string using FIFO.
1458:C:/Users/Mafish/Documents/GitHub/MAB_Controller/Dave/Generated/UART\uart.h ****  *
1459:C:/Users/Mafish/Documents/GitHub/MAB_Controller/Dave/Generated/UART\uart.h ****  * uint8_t send_data[] = "Infineon Technologies";
1460:C:/Users/Mafish/Documents/GitHub/MAB_Controller/Dave/Generated/UART\uart.h ****  * int main(void)
1461:C:/Users/Mafish/Documents/GitHub/MAB_Controller/Dave/Generated/UART\uart.h ****  * {
1462:C:/Users/Mafish/Documents/GitHub/MAB_Controller/Dave/Generated/UART\uart.h ****  *   DAVE_STATUS_t status;
1463:C:/Users/Mafish/Documents/GitHub/MAB_Controller/Dave/Generated/UART\uart.h ****  *   uint32_t loc_index;
1464:C:/Users/Mafish/Documents/GitHub/MAB_Controller/Dave/Generated/UART\uart.h ****  *
1465:C:/Users/Mafish/Documents/GitHub/MAB_Controller/Dave/Generated/UART\uart.h ****  *   status = DAVE_Init();           // Initialization of DAVE APPs
1466:C:/Users/Mafish/Documents/GitHub/MAB_Controller/Dave/Generated/UART\uart.h ****  *
1467:C:/Users/Mafish/Documents/GitHub/MAB_Controller/Dave/Generated/UART\uart.h ****  *   if(status == DAVE_STATUS_FAILURE)
1468:C:/Users/Mafish/Documents/GitHub/MAB_Controller/Dave/Generated/UART\uart.h ****  *   {
1469:C:/Users/Mafish/Documents/GitHub/MAB_Controller/Dave/Generated/UART\uart.h ****  *     XMC_DEBUG("DAVE APPs initialization failed\n");
1470:C:/Users/Mafish/Documents/GitHub/MAB_Controller/Dave/Generated/UART\uart.h ****  *
1471:C:/Users/Mafish/Documents/GitHub/MAB_Controller/Dave/Generated/UART\uart.h ****  *     while(1U)
1472:C:/Users/Mafish/Documents/GitHub/MAB_Controller/Dave/Generated/UART\uart.h ****  *     {
1473:C:/Users/Mafish/Documents/GitHub/MAB_Controller/Dave/Generated/UART\uart.h ****  *
1474:C:/Users/Mafish/Documents/GitHub/MAB_Controller/Dave/Generated/UART\uart.h ****  *     }
1475:C:/Users/Mafish/Documents/GitHub/MAB_Controller/Dave/Generated/UART\uart.h ****  *   }
1476:C:/Users/Mafish/Documents/GitHub/MAB_Controller/Dave/Generated/UART\uart.h ****  *   for(loc_index = 0; loc_index < sizeof(send_data); loc_index++)
1477:C:/Users/Mafish/Documents/GitHub/MAB_Controller/Dave/Generated/UART\uart.h ****  *   {
1478:C:/Users/Mafish/Documents/GitHub/MAB_Controller/Dave/Generated/UART\uart.h ****  *     //Wait when Tx FIFO is full
1479:C:/Users/Mafish/Documents/GitHub/MAB_Controller/Dave/Generated/UART\uart.h ****  *     while(UART_IsTXFIFOFull(&UART_0))
1480:C:/Users/Mafish/Documents/GitHub/MAB_Controller/Dave/Generated/UART\uart.h ****  *     {
1481:C:/Users/Mafish/Documents/GitHub/MAB_Controller/Dave/Generated/UART\uart.h ****  *     }
1482:C:/Users/Mafish/Documents/GitHub/MAB_Controller/Dave/Generated/UART\uart.h ****  *     UART_TransmitWord(&UART_0, send_data[loc_index]);
1483:C:/Users/Mafish/Documents/GitHub/MAB_Controller/Dave/Generated/UART\uart.h ****  *   }
1484:C:/Users/Mafish/Documents/GitHub/MAB_Controller/Dave/Generated/UART\uart.h ****  *   while(1U)
1485:C:/Users/Mafish/Documents/GitHub/MAB_Controller/Dave/Generated/UART\uart.h ****  *   {
1486:C:/Users/Mafish/Documents/GitHub/MAB_Controller/Dave/Generated/UART\uart.h ****  *   }
1487:C:/Users/Mafish/Documents/GitHub/MAB_Controller/Dave/Generated/UART\uart.h ****  * }
1488:C:/Users/Mafish/Documents/GitHub/MAB_Controller/Dave/Generated/UART\uart.h ****  * @endcode
1489:C:/Users/Mafish/Documents/GitHub/MAB_Controller/Dave/Generated/UART\uart.h ****  */
1490:C:/Users/Mafish/Documents/GitHub/MAB_Controller/Dave/Generated/UART\uart.h **** __STATIC_INLINE bool UART_IsTXFIFOFull(const UART_t* const handle)
1491:C:/Users/Mafish/Documents/GitHub/MAB_Controller/Dave/Generated/UART\uart.h **** {
1492:C:/Users/Mafish/Documents/GitHub/MAB_Controller/Dave/Generated/UART\uart.h ****   XMC_ASSERT("UART APP handle invalid", (handle != NULL))
1493:C:/Users/Mafish/Documents/GitHub/MAB_Controller/Dave/Generated/UART\uart.h ****   return XMC_USIC_CH_TXFIFO_IsFull(handle->channel);
1494:C:/Users/Mafish/Documents/GitHub/MAB_Controller/Dave/Generated/UART\uart.h **** }
1495:C:/Users/Mafish/Documents/GitHub/MAB_Controller/Dave/Generated/UART\uart.h **** 
1496:C:/Users/Mafish/Documents/GitHub/MAB_Controller/Dave/Generated/UART\uart.h **** /**
1497:C:/Users/Mafish/Documents/GitHub/MAB_Controller/Dave/Generated/UART\uart.h ****  * @brief Checks if the receive FIFO is empty.
1498:C:/Users/Mafish/Documents/GitHub/MAB_Controller/Dave/Generated/UART\uart.h ****  *
1499:C:/Users/Mafish/Documents/GitHub/MAB_Controller/Dave/Generated/UART\uart.h ****  * @param  handle UART APP handle pointer of type @ref UART_t
1500:C:/Users/Mafish/Documents/GitHub/MAB_Controller/Dave/Generated/UART\uart.h ****  *
1501:C:/Users/Mafish/Documents/GitHub/MAB_Controller/Dave/Generated/UART\uart.h ****  * @return bool Status of receive FIFO filling level.
1502:C:/Users/Mafish/Documents/GitHub/MAB_Controller/Dave/Generated/UART\uart.h ****  *              \bRange: \atrue- if receive FIFO is empty.<br>
1503:C:/Users/Mafish/Documents/GitHub/MAB_Controller/Dave/Generated/UART\uart.h ****  *                       \afalse- if receive FIFO still has data.<br>
1504:C:/Users/Mafish/Documents/GitHub/MAB_Controller/Dave/Generated/UART\uart.h ****  * \par<b>Description:</b><br>
1505:C:/Users/Mafish/Documents/GitHub/MAB_Controller/Dave/Generated/UART\uart.h ****  * Checks the status using the register TRBSR. Can be used while reading
1506:C:/Users/Mafish/Documents/GitHub/MAB_Controller/Dave/Generated/UART\uart.h ****  * data from the receive FIFO.
1507:C:/Users/Mafish/Documents/GitHub/MAB_Controller/Dave/Generated/UART\uart.h ****  *
1508:C:/Users/Mafish/Documents/GitHub/MAB_Controller/Dave/Generated/UART\uart.h ****  * Example Usage:
1509:C:/Users/Mafish/Documents/GitHub/MAB_Controller/Dave/Generated/UART\uart.h ****  * @code
1510:C:/Users/Mafish/Documents/GitHub/MAB_Controller/Dave/Generated/UART\uart.h ****  *  #include <DAVE.h>                 //Declarations from DAVE Code Generation (includes SFR declar
1511:C:/Users/Mafish/Documents/GitHub/MAB_Controller/Dave/Generated/UART\uart.h ****  *
1512:C:/Users/Mafish/Documents/GitHub/MAB_Controller/Dave/Generated/UART\uart.h ****  *  // Precondition:
1513:C:/Users/Mafish/Documents/GitHub/MAB_Controller/Dave/Generated/UART\uart.h ****  *  // Receive mode should be "Direct"
1514:C:/Users/Mafish/Documents/GitHub/MAB_Controller/Dave/Generated/UART\uart.h ****  *  //
1515:C:/Users/Mafish/Documents/GitHub/MAB_Controller/Dave/Generated/UART\uart.h ****  *  // Description:
1516:C:/Users/Mafish/Documents/GitHub/MAB_Controller/Dave/Generated/UART\uart.h ****  *  // Receives 10 bytes and transmits the received 10 bytes.
1517:C:/Users/Mafish/Documents/GitHub/MAB_Controller/Dave/Generated/UART\uart.h ****  *
1518:C:/Users/Mafish/Documents/GitHub/MAB_Controller/Dave/Generated/UART\uart.h ****  * uint8_t send_text[] = "Enter 10 bytes:";
1519:C:/Users/Mafish/Documents/GitHub/MAB_Controller/Dave/Generated/UART\uart.h ****  * uint8_t rec_data[10];
1520:C:/Users/Mafish/Documents/GitHub/MAB_Controller/Dave/Generated/UART\uart.h ****  * int main(void)
1521:C:/Users/Mafish/Documents/GitHub/MAB_Controller/Dave/Generated/UART\uart.h ****  * {
1522:C:/Users/Mafish/Documents/GitHub/MAB_Controller/Dave/Generated/UART\uart.h ****  *   DAVE_STATUS_t status;
1523:C:/Users/Mafish/Documents/GitHub/MAB_Controller/Dave/Generated/UART\uart.h ****  *   uint32_t loc_index;
1524:C:/Users/Mafish/Documents/GitHub/MAB_Controller/Dave/Generated/UART\uart.h ****  *
1525:C:/Users/Mafish/Documents/GitHub/MAB_Controller/Dave/Generated/UART\uart.h ****  *   status = DAVE_Init();           // Initialization of DAVE APPs
1526:C:/Users/Mafish/Documents/GitHub/MAB_Controller/Dave/Generated/UART\uart.h ****  *
1527:C:/Users/Mafish/Documents/GitHub/MAB_Controller/Dave/Generated/UART\uart.h ****  *   if(status == DAVE_STATUS_FAILURE)
1528:C:/Users/Mafish/Documents/GitHub/MAB_Controller/Dave/Generated/UART\uart.h ****  *   {
1529:C:/Users/Mafish/Documents/GitHub/MAB_Controller/Dave/Generated/UART\uart.h ****  *     XMC_DEBUG("DAVE APPs initialization failed\n");
1530:C:/Users/Mafish/Documents/GitHub/MAB_Controller/Dave/Generated/UART\uart.h ****  *
1531:C:/Users/Mafish/Documents/GitHub/MAB_Controller/Dave/Generated/UART\uart.h ****  *     while(1U)
1532:C:/Users/Mafish/Documents/GitHub/MAB_Controller/Dave/Generated/UART\uart.h ****  *     {
1533:C:/Users/Mafish/Documents/GitHub/MAB_Controller/Dave/Generated/UART\uart.h ****  *
1534:C:/Users/Mafish/Documents/GitHub/MAB_Controller/Dave/Generated/UART\uart.h ****  *     }
1535:C:/Users/Mafish/Documents/GitHub/MAB_Controller/Dave/Generated/UART\uart.h ****  *   }
1536:C:/Users/Mafish/Documents/GitHub/MAB_Controller/Dave/Generated/UART\uart.h ****  *   UART_Transmit(&UART_0, send_text, sizeof(send_text));
1537:C:/Users/Mafish/Documents/GitHub/MAB_Controller/Dave/Generated/UART\uart.h ****  *   for(loc_index = 0; loc_index < sizeof(rec_data); loc_index++)
1538:C:/Users/Mafish/Documents/GitHub/MAB_Controller/Dave/Generated/UART\uart.h ****  *   {
1539:C:/Users/Mafish/Documents/GitHub/MAB_Controller/Dave/Generated/UART\uart.h ****  *     //Wait when Rx FIFO is empty
1540:C:/Users/Mafish/Documents/GitHub/MAB_Controller/Dave/Generated/UART\uart.h ****  *     while(UART_IsRXFIFOEmpty(&UART_0))
1541:C:/Users/Mafish/Documents/GitHub/MAB_Controller/Dave/Generated/UART\uart.h ****  *     {
1542:C:/Users/Mafish/Documents/GitHub/MAB_Controller/Dave/Generated/UART\uart.h ****  *     }
1543:C:/Users/Mafish/Documents/GitHub/MAB_Controller/Dave/Generated/UART\uart.h ****  *     rec_data[loc_index] = UART_GetReceivedWord(&UART_0);
1544:C:/Users/Mafish/Documents/GitHub/MAB_Controller/Dave/Generated/UART\uart.h ****  *   }
1545:C:/Users/Mafish/Documents/GitHub/MAB_Controller/Dave/Generated/UART\uart.h ****  *   //Transmit the received data
1546:C:/Users/Mafish/Documents/GitHub/MAB_Controller/Dave/Generated/UART\uart.h ****  *   UART_Transmit(&UART_0, rec_data, sizeof(rec_data));
1547:C:/Users/Mafish/Documents/GitHub/MAB_Controller/Dave/Generated/UART\uart.h ****  *   while(1U)
1548:C:/Users/Mafish/Documents/GitHub/MAB_Controller/Dave/Generated/UART\uart.h ****  *   {
1549:C:/Users/Mafish/Documents/GitHub/MAB_Controller/Dave/Generated/UART\uart.h ****  *   }
1550:C:/Users/Mafish/Documents/GitHub/MAB_Controller/Dave/Generated/UART\uart.h ****  * }
1551:C:/Users/Mafish/Documents/GitHub/MAB_Controller/Dave/Generated/UART\uart.h ****  * @endcode
1552:C:/Users/Mafish/Documents/GitHub/MAB_Controller/Dave/Generated/UART\uart.h ****  */
1553:C:/Users/Mafish/Documents/GitHub/MAB_Controller/Dave/Generated/UART\uart.h **** __STATIC_INLINE bool UART_IsRXFIFOEmpty(const UART_t* const handle)
1554:C:/Users/Mafish/Documents/GitHub/MAB_Controller/Dave/Generated/UART\uart.h **** {
1555:C:/Users/Mafish/Documents/GitHub/MAB_Controller/Dave/Generated/UART\uart.h ****   XMC_ASSERT("UART APP handle invalid", (handle != NULL))
1556:C:/Users/Mafish/Documents/GitHub/MAB_Controller/Dave/Generated/UART\uart.h ****   return XMC_USIC_CH_RXFIFO_IsEmpty(handle->channel);
1557:C:/Users/Mafish/Documents/GitHub/MAB_Controller/Dave/Generated/UART\uart.h **** }
1558:C:/Users/Mafish/Documents/GitHub/MAB_Controller/Dave/Generated/UART\uart.h **** 
1559:C:/Users/Mafish/Documents/GitHub/MAB_Controller/Dave/Generated/UART\uart.h **** /**
1560:C:/Users/Mafish/Documents/GitHub/MAB_Controller/Dave/Generated/UART\uart.h ****  * @brief Configures trigger limit for the transmit FIFO.
1561:C:/Users/Mafish/Documents/GitHub/MAB_Controller/Dave/Generated/UART\uart.h ****  *
1562:C:/Users/Mafish/Documents/GitHub/MAB_Controller/Dave/Generated/UART\uart.h ****  * @param  handle UART APP handle pointer of type @ref UART_t
1563:C:/Users/Mafish/Documents/GitHub/MAB_Controller/Dave/Generated/UART\uart.h ****  * @param  limit Value of transmit FIFO filling level, transition below which the interrupt should 
1564:C:/Users/Mafish/Documents/GitHub/MAB_Controller/Dave/Generated/UART\uart.h ****  *               \bRange: 0 to transmit FIFO size.\n
1565:C:/Users/Mafish/Documents/GitHub/MAB_Controller/Dave/Generated/UART\uart.h ****  *               e.g, If transmit FIFO size is 16, and limit is configured as 8, FIFO standard tran
1566:C:/Users/Mafish/Documents/GitHub/MAB_Controller/Dave/Generated/UART\uart.h ****  *               will be generated when the FIFO filling level drops from 8 to 7.\n
1567:C:/Users/Mafish/Documents/GitHub/MAB_Controller/Dave/Generated/UART\uart.h ****  *
1568:C:/Users/Mafish/Documents/GitHub/MAB_Controller/Dave/Generated/UART\uart.h ****  * @return None\n
1569:C:/Users/Mafish/Documents/GitHub/MAB_Controller/Dave/Generated/UART\uart.h ****  *
1570:C:/Users/Mafish/Documents/GitHub/MAB_Controller/Dave/Generated/UART\uart.h ****  * \par<b>Description:</b><br>
1571:C:/Users/Mafish/Documents/GitHub/MAB_Controller/Dave/Generated/UART\uart.h ****  * Transmit FIFO trigger limit is configured by setting its value in the TBCTR register.
1572:C:/Users/Mafish/Documents/GitHub/MAB_Controller/Dave/Generated/UART\uart.h ****  * Transmit FIFO is configured to generate interrupt when the FIFO filling level drops
1573:C:/Users/Mafish/Documents/GitHub/MAB_Controller/Dave/Generated/UART\uart.h ****  * below the trigger limit.
1574:C:/Users/Mafish/Documents/GitHub/MAB_Controller/Dave/Generated/UART\uart.h ****  *
1575:C:/Users/Mafish/Documents/GitHub/MAB_Controller/Dave/Generated/UART\uart.h ****  * Example Usage:
1576:C:/Users/Mafish/Documents/GitHub/MAB_Controller/Dave/Generated/UART\uart.h ****  * @code
1577:C:/Users/Mafish/Documents/GitHub/MAB_Controller/Dave/Generated/UART\uart.h ****  *   #include <DAVE.h>         //Declarations from DAVE Code Generation (includes SFR declaration)
1578:C:/Users/Mafish/Documents/GitHub/MAB_Controller/Dave/Generated/UART\uart.h ****  *
1579:C:/Users/Mafish/Documents/GitHub/MAB_Controller/Dave/Generated/UART\uart.h ****  *   //Precondition:
1580:C:/Users/Mafish/Documents/GitHub/MAB_Controller/Dave/Generated/UART\uart.h ****  *   //Configure receive mode as "Direct"
1581:C:/Users/Mafish/Documents/GitHub/MAB_Controller/Dave/Generated/UART\uart.h ****  *   //Add an instance of the INTERRUPT APP and connect the UART event_fifo_transmit_buffer_interru
1582:C:/Users/Mafish/Documents/GitHub/MAB_Controller/Dave/Generated/UART\uart.h ****  *   //signal to the INTERRUPT sr_irq signal.
1583:C:/Users/Mafish/Documents/GitHub/MAB_Controller/Dave/Generated/UART\uart.h ****  *   //Provide the callback function name in INTERRUPT APP as "tx_cb"
1584:C:/Users/Mafish/Documents/GitHub/MAB_Controller/Dave/Generated/UART\uart.h ****  *   //Description:
1585:C:/Users/Mafish/Documents/GitHub/MAB_Controller/Dave/Generated/UART\uart.h ****  *   //Transmits the string "Infineon" using FIFO. Configures the FIFO to generate event when the F
1586:C:/Users/Mafish/Documents/GitHub/MAB_Controller/Dave/Generated/UART\uart.h ****  *   //is empty. Puts one byte to the FIFO when the event is generated.
1587:C:/Users/Mafish/Documents/GitHub/MAB_Controller/Dave/Generated/UART\uart.h ****  *
1588:C:/Users/Mafish/Documents/GitHub/MAB_Controller/Dave/Generated/UART\uart.h ****  *   uint8_t Send_Data[] = "Infineon";
1589:C:/Users/Mafish/Documents/GitHub/MAB_Controller/Dave/Generated/UART\uart.h ****  *   uint8_t index = 0;
1590:C:/Users/Mafish/Documents/GitHub/MAB_Controller/Dave/Generated/UART\uart.h ****  *   int main(void)
1591:C:/Users/Mafish/Documents/GitHub/MAB_Controller/Dave/Generated/UART\uart.h ****  *   {
1592:C:/Users/Mafish/Documents/GitHub/MAB_Controller/Dave/Generated/UART\uart.h ****  *     UART_STATUS_t init_status;
1593:C:/Users/Mafish/Documents/GitHub/MAB_Controller/Dave/Generated/UART\uart.h ****  *     uint8_t Rec_Data[10];
1594:C:/Users/Mafish/Documents/GitHub/MAB_Controller/Dave/Generated/UART\uart.h ****  *
1595:C:/Users/Mafish/Documents/GitHub/MAB_Controller/Dave/Generated/UART\uart.h ****  *     init_status = (UART_STATUS_t)UART_Init(&UART_0);
1596:C:/Users/Mafish/Documents/GitHub/MAB_Controller/Dave/Generated/UART\uart.h ****  *     if(init_status == UART_STATUS_SUCCESS)
1597:C:/Users/Mafish/Documents/GitHub/MAB_Controller/Dave/Generated/UART\uart.h ****  *     {
1598:C:/Users/Mafish/Documents/GitHub/MAB_Controller/Dave/Generated/UART\uart.h ****  *       //Configure transmit interrupt generation when the transmit FIFO is empty
1599:C:/Users/Mafish/Documents/GitHub/MAB_Controller/Dave/Generated/UART\uart.h ****  *       UART_SetTXFIFOTriggerLimit(&UART_0, 1);
1600:C:/Users/Mafish/Documents/GitHub/MAB_Controller/Dave/Generated/UART\uart.h ****  *       //Put one word to the FIFO
1601:C:/Users/Mafish/Documents/GitHub/MAB_Controller/Dave/Generated/UART\uart.h ****  *       UART_TransmitWord(&UART_0,Send_Data[index]);
1602:C:/Users/Mafish/Documents/GitHub/MAB_Controller/Dave/Generated/UART\uart.h ****  *       index++;
1603:C:/Users/Mafish/Documents/GitHub/MAB_Controller/Dave/Generated/UART\uart.h ****  *     }
1604:C:/Users/Mafish/Documents/GitHub/MAB_Controller/Dave/Generated/UART\uart.h ****  *     else
1605:C:/Users/Mafish/Documents/GitHub/MAB_Controller/Dave/Generated/UART\uart.h ****  *     {
1606:C:/Users/Mafish/Documents/GitHub/MAB_Controller/Dave/Generated/UART\uart.h ****  *      XMC_DEBUG("main: Application initialization failed");
1607:C:/Users/Mafish/Documents/GitHub/MAB_Controller/Dave/Generated/UART\uart.h ****  *      while(1U)
1608:C:/Users/Mafish/Documents/GitHub/MAB_Controller/Dave/Generated/UART\uart.h ****  *      {
1609:C:/Users/Mafish/Documents/GitHub/MAB_Controller/Dave/Generated/UART\uart.h ****  *      }
1610:C:/Users/Mafish/Documents/GitHub/MAB_Controller/Dave/Generated/UART\uart.h ****  *     }
1611:C:/Users/Mafish/Documents/GitHub/MAB_Controller/Dave/Generated/UART\uart.h ****  *      return 1U;
1612:C:/Users/Mafish/Documents/GitHub/MAB_Controller/Dave/Generated/UART\uart.h ****  *  }
1613:C:/Users/Mafish/Documents/GitHub/MAB_Controller/Dave/Generated/UART\uart.h ****  *
1614:C:/Users/Mafish/Documents/GitHub/MAB_Controller/Dave/Generated/UART\uart.h ****  *  //INTERRUPT APP callback function
1615:C:/Users/Mafish/Documents/GitHub/MAB_Controller/Dave/Generated/UART\uart.h ****  *  void tx_cb()
1616:C:/Users/Mafish/Documents/GitHub/MAB_Controller/Dave/Generated/UART\uart.h ****  *  {
1617:C:/Users/Mafish/Documents/GitHub/MAB_Controller/Dave/Generated/UART\uart.h ****  *    if(index < sizeof(Send_Data))
1618:C:/Users/Mafish/Documents/GitHub/MAB_Controller/Dave/Generated/UART\uart.h ****  *    {
1619:C:/Users/Mafish/Documents/GitHub/MAB_Controller/Dave/Generated/UART\uart.h ****  *      //Put one word to the FIFO
1620:C:/Users/Mafish/Documents/GitHub/MAB_Controller/Dave/Generated/UART\uart.h ****  *      UART_TransmitWord(&UART_0,Send_Data[index]);
1621:C:/Users/Mafish/Documents/GitHub/MAB_Controller/Dave/Generated/UART\uart.h ****  *      index++;
1622:C:/Users/Mafish/Documents/GitHub/MAB_Controller/Dave/Generated/UART\uart.h ****  *    }
1623:C:/Users/Mafish/Documents/GitHub/MAB_Controller/Dave/Generated/UART\uart.h ****  *  }
1624:C:/Users/Mafish/Documents/GitHub/MAB_Controller/Dave/Generated/UART\uart.h ****  * @endcode
1625:C:/Users/Mafish/Documents/GitHub/MAB_Controller/Dave/Generated/UART\uart.h ****  */
1626:C:/Users/Mafish/Documents/GitHub/MAB_Controller/Dave/Generated/UART\uart.h **** __STATIC_INLINE void UART_SetTXFIFOTriggerLimit(const UART_t* const handle, uint32_t limit)
1627:C:/Users/Mafish/Documents/GitHub/MAB_Controller/Dave/Generated/UART\uart.h **** {
1628:C:/Users/Mafish/Documents/GitHub/MAB_Controller/Dave/Generated/UART\uart.h ****   XMC_ASSERT("UART APP handle invalid", (handle != NULL))
1629:C:/Users/Mafish/Documents/GitHub/MAB_Controller/Dave/Generated/UART\uart.h ****   XMC_USIC_CH_TXFIFO_SetSizeTriggerLimit(handle->channel, handle->config->tx_fifo_size, limit);
1630:C:/Users/Mafish/Documents/GitHub/MAB_Controller/Dave/Generated/UART\uart.h **** }
1631:C:/Users/Mafish/Documents/GitHub/MAB_Controller/Dave/Generated/UART\uart.h **** 
1632:C:/Users/Mafish/Documents/GitHub/MAB_Controller/Dave/Generated/UART\uart.h **** /**
1633:C:/Users/Mafish/Documents/GitHub/MAB_Controller/Dave/Generated/UART\uart.h ****  * @brief Configures trigger limit for the receive FIFO.
1634:C:/Users/Mafish/Documents/GitHub/MAB_Controller/Dave/Generated/UART\uart.h ****  *
1635:C:/Users/Mafish/Documents/GitHub/MAB_Controller/Dave/Generated/UART\uart.h ****  * @param  handle UART APP handle pointer of type @ref UART_t
1636:C:/Users/Mafish/Documents/GitHub/MAB_Controller/Dave/Generated/UART\uart.h ****  * @param  limit Value of receive FIFO filling level, transition above which the interrupt should b
1637:C:/Users/Mafish/Documents/GitHub/MAB_Controller/Dave/Generated/UART\uart.h ****  *               \bRange: 0 to receive FIFO size.\n
1638:C:/Users/Mafish/Documents/GitHub/MAB_Controller/Dave/Generated/UART\uart.h ****  *               e.g, If receive FIFO size is 16, and limit is configured as 8, FIFO receive buffer
1639:C:/Users/Mafish/Documents/GitHub/MAB_Controller/Dave/Generated/UART\uart.h ****  *               will be generated when the FIFO filling level rises from 8 to 9.\n
1640:C:/Users/Mafish/Documents/GitHub/MAB_Controller/Dave/Generated/UART\uart.h ****  *
1641:C:/Users/Mafish/Documents/GitHub/MAB_Controller/Dave/Generated/UART\uart.h ****  * @return None\n
1642:C:/Users/Mafish/Documents/GitHub/MAB_Controller/Dave/Generated/UART\uart.h ****  *
1643:C:/Users/Mafish/Documents/GitHub/MAB_Controller/Dave/Generated/UART\uart.h ****  * \par<b>Description:</b><br>
1644:C:/Users/Mafish/Documents/GitHub/MAB_Controller/Dave/Generated/UART\uart.h ****  * Receive FIFO trigger limit is configured by setting its value in the RBCTR register.
1645:C:/Users/Mafish/Documents/GitHub/MAB_Controller/Dave/Generated/UART\uart.h ****  * Receive FIFO is configured to generate interrupt when the FIFO filling level rises
1646:C:/Users/Mafish/Documents/GitHub/MAB_Controller/Dave/Generated/UART\uart.h ****  * above the trigger limit.
1647:C:/Users/Mafish/Documents/GitHub/MAB_Controller/Dave/Generated/UART\uart.h ****  *
1648:C:/Users/Mafish/Documents/GitHub/MAB_Controller/Dave/Generated/UART\uart.h ****  * Example Usage:
1649:C:/Users/Mafish/Documents/GitHub/MAB_Controller/Dave/Generated/UART\uart.h ****  * @code
1650:C:/Users/Mafish/Documents/GitHub/MAB_Controller/Dave/Generated/UART\uart.h ****  *   #include <DAVE.h>         //Declarations from DAVE Code Generation (includes SFR declaration)
1651:C:/Users/Mafish/Documents/GitHub/MAB_Controller/Dave/Generated/UART\uart.h ****  *
1652:C:/Users/Mafish/Documents/GitHub/MAB_Controller/Dave/Generated/UART\uart.h ****  *   //Precondition:
1653:C:/Users/Mafish/Documents/GitHub/MAB_Controller/Dave/Generated/UART\uart.h ****  *   //Configure receive mode as "Direct"
1654:C:/Users/Mafish/Documents/GitHub/MAB_Controller/Dave/Generated/UART\uart.h ****  *   //Add an instance of the INTERRUPT APP and connect the UART event_fifo_receive_buffer_interrup
1655:C:/Users/Mafish/Documents/GitHub/MAB_Controller/Dave/Generated/UART\uart.h ****  *   //signal to the INTERRUPT sr_irq signal.
1656:C:/Users/Mafish/Documents/GitHub/MAB_Controller/Dave/Generated/UART\uart.h ****  *   //Provide the callback function name in INTERRUPT APP as "rx_cb"
1657:C:/Users/Mafish/Documents/GitHub/MAB_Controller/Dave/Generated/UART\uart.h ****  *   //Description:
1658:C:/Users/Mafish/Documents/GitHub/MAB_Controller/Dave/Generated/UART\uart.h ****  *
1659:C:/Users/Mafish/Documents/GitHub/MAB_Controller/Dave/Generated/UART\uart.h ****  *   uint8_t Rec_Data[10];
1660:C:/Users/Mafish/Documents/GitHub/MAB_Controller/Dave/Generated/UART\uart.h ****  *   uint8_t index = 0;
1661:C:/Users/Mafish/Documents/GitHub/MAB_Controller/Dave/Generated/UART\uart.h ****  *   int main(void)
1662:C:/Users/Mafish/Documents/GitHub/MAB_Controller/Dave/Generated/UART\uart.h ****  *   {
1663:C:/Users/Mafish/Documents/GitHub/MAB_Controller/Dave/Generated/UART\uart.h ****  *     UART_STATUS_t init_status;
1664:C:/Users/Mafish/Documents/GitHub/MAB_Controller/Dave/Generated/UART\uart.h ****  *
1665:C:/Users/Mafish/Documents/GitHub/MAB_Controller/Dave/Generated/UART\uart.h ****  *     init_status = (UART_STATUS_t)UART_Init(&UART_0);
1666:C:/Users/Mafish/Documents/GitHub/MAB_Controller/Dave/Generated/UART\uart.h ****  *     if(init_status == UART_STATUS_SUCCESS)
1667:C:/Users/Mafish/Documents/GitHub/MAB_Controller/Dave/Generated/UART\uart.h ****  *     {
